---
triple:          'arm64-apple-darwin'
binary-path:     a.out
relocations:
  - { offsetInCU: 0x8FBA, offset: 0x8FBA, size: 0x8, addend: 0x0, symName: __ZNSt3__124__put_character_sequenceB7v160006IcNS_11char_traitsIcEEEERNS_13basic_ostreamIT_T0_EES7_PKS4_m, symObjAddr: 0x4450, symBinAddr: 0x100007EFC, symSize: 0x1EC }
  - { offsetInCU: 0xA304, offset: 0xA304, size: 0x8, addend: 0x0, symName: __ZNSt3__17advanceB7v160006IPimmvEEvRT_T0_, symObjAddr: 0x866C, symBinAddr: 0x10000C118, symSize: 0x50 }
  - { offsetInCU: 0xAFE8, offset: 0xAFE8, size: 0x8, addend: 0x0, symName: __ZNSt3__17advanceB7v160006IP3NetmmvEEvRT_T0_, symObjAddr: 0xC4E8, symBinAddr: 0x10000FF94, symSize: 0x50 }
  - { offsetInCU: 0xB195, offset: 0xB195, size: 0x8, addend: 0x0, symName: __ZNSt3__17advanceB7v160006IP3PinmmvEEvRT_T0_, symObjAddr: 0xD2D4, symBinAddr: 0x100010D80, symSize: 0x50 }
  - { offsetInCU: 0xB342, offset: 0xB342, size: 0x8, addend: 0x0, symName: __ZNSt3__17advanceB7v160006IP5PointmmvEEvRT_T0_, symObjAddr: 0xE078, symBinAddr: 0x100011B24, symSize: 0x50 }
  - { offsetInCU: 0xD26C, offset: 0xD26C, size: 0x8, addend: 0x0, symName: __ZNSt3__1lsB7v160006INS_11char_traitsIcEEEERNS_13basic_ostreamIcT_EES6_PKc, symObjAddr: 0xA40, symBinAddr: 0x1000044EC, symSize: 0x48 }
  - { offsetInCU: 0xD2B2, offset: 0xD2B2, size: 0x8, addend: 0x0, symName: __ZNSt3__14endlB7v160006IcNS_11char_traitsIcEEEERNS_13basic_ostreamIT_T0_EES7_, symObjAddr: 0xAB4, symBinAddr: 0x100004560, symSize: 0x58 }
  - { offsetInCU: 0xD2F2, offset: 0xD2F2, size: 0x8, addend: 0x0, symName: __ZNSt3__17getlineB7v160006IcNS_11char_traitsIcEENS_9allocatorIcEEEERNS_13basic_istreamIT_T0_EES9_RNS_12basic_stringIS6_S7_T1_EE, symObjAddr: 0xBBC, symBinAddr: 0x100004668, symSize: 0x5C }
  - { offsetInCU: 0xD34A, offset: 0xD34A, size: 0x8, addend: 0x0, symName: __ZNSt3__1eqB7v160006IcNS_11char_traitsIcEENS_9allocatorIcEEEEbRKNS_12basic_stringIT_T0_T1_EEPKS6_, symObjAddr: 0xCAC, symBinAddr: 0x100004758, symSize: 0xAC }
  - { offsetInCU: 0xD3B1, offset: 0xD3B1, size: 0x8, addend: 0x0, symName: __ZNSt3__16removeB7v160006INS_11__wrap_iterIPcEEcEET_S4_S4_RKT0_, symObjAddr: 0xE2C, symBinAddr: 0x1000048D8, symSize: 0x108 }
  - { offsetInCU: 0xD786, offset: 0xD786, size: 0x8, addend: 0x0, symName: __ZNSt3__1rsB7v160006IcNS_11char_traitsIcEEEERNS_13basic_istreamIT_T0_EES7_RS4_, symObjAddr: 0x1134, symBinAddr: 0x100004BE0, symSize: 0x18C }
  - { offsetInCU: 0xD808, offset: 0xD808, size: 0x8, addend: 0x0, symName: __ZNSt3__12wsB7v160006IcNS_11char_traitsIcEEEERNS_13basic_istreamIT_T0_EES7_, symObjAddr: 0x12EC, symBinAddr: 0x100004D98, symSize: 0x238 }
  - { offsetInCU: 0xD8A6, offset: 0xD8A6, size: 0x8, addend: 0x0, symName: __ZNSt3__1lsB7v160006IcNS_11char_traitsIcEENS_9allocatorIcEEEERNS_13basic_ostreamIT_T0_EES9_RKNS_12basic_stringIS6_S7_T1_EE, symObjAddr: 0x20F4, symBinAddr: 0x100005BA0, symSize: 0x4C }
  - { offsetInCU: 0xD8FE, offset: 0xD8FE, size: 0x8, addend: 0x0, symName: __ZNSt3__119__debug_db_insert_cB7v160006INS_12basic_stringIcNS_11char_traitsIcEENS_9allocatorIcEEEEEEvPT_, symObjAddr: 0x2610, symBinAddr: 0x1000060BC, symSize: 0x10 }
  - { offsetInCU: 0xD92F, offset: 0xD92F, size: 0x8, addend: 0x0, symName: __ZNSt3__119__debug_db_insert_cB7v160006INS_6vectorIiNS_9allocatorIiEEEEEEvPT_, symObjAddr: 0x27E8, symBinAddr: 0x100006294, symSize: 0x10 }
  - { offsetInCU: 0xD960, offset: 0xD960, size: 0x8, addend: 0x0, symName: __ZNSt3__118__debug_db_erase_cB7v160006INS_6vectorIiNS_9allocatorIiEEEEEEvPT_, symObjAddr: 0x2AAC, symBinAddr: 0x100006558, symSize: 0x10 }
  - { offsetInCU: 0xD991, offset: 0xD991, size: 0x8, addend: 0x0, symName: __ZNSt3__112__to_addressB7v160006IiEEPT_S2_, symObjAddr: 0x2BC8, symBinAddr: 0x100006674, symSize: 0x14 }
  - { offsetInCU: 0xD9C6, offset: 0xD9C6, size: 0x8, addend: 0x0, symName: __ZNSt3__119__libcpp_deallocateB7v160006EPvmm, symObjAddr: 0x2CE8, symBinAddr: 0x100006794, symSize: 0x30 }
  - { offsetInCU: 0xDA0E, offset: 0xDA0E, size: 0x8, addend: 0x0, symName: __ZNSt3__127__do_deallocate_handle_sizeB7v160006IJEEEvPvmDpT_, symObjAddr: 0x2D18, symBinAddr: 0x1000067C4, symSize: 0x28 }
  - { offsetInCU: 0xDA4C, offset: 0xDA4C, size: 0x8, addend: 0x0, symName: __ZNSt3__124__libcpp_operator_deleteB7v160006IJPvEEEvDpT_, symObjAddr: 0x2D40, symBinAddr: 0x1000067EC, symSize: 0x24 }
  - { offsetInCU: 0xDA81, offset: 0xDA81, size: 0x8, addend: 0x0, symName: __ZNSt3__119__debug_db_insert_cB7v160006INS_6vectorI3NetNS_9allocatorIS2_EEEEEEvPT_, symObjAddr: 0x2E90, symBinAddr: 0x10000693C, symSize: 0x10 }
  - { offsetInCU: 0xDAB2, offset: 0xDAB2, size: 0x8, addend: 0x0, symName: __ZNSt3__119__debug_db_insert_cB7v160006INS_6vectorI3PinNS_9allocatorIS2_EEEEEEvPT_, symObjAddr: 0x2FFC, symBinAddr: 0x100006AA8, symSize: 0x10 }
  - { offsetInCU: 0xDAE3, offset: 0xDAE3, size: 0x8, addend: 0x0, symName: __ZNSt3__119__debug_db_insert_cB7v160006INS_6vectorI5PointNS_9allocatorIS2_EEEEEEvPT_, symObjAddr: 0x3168, symBinAddr: 0x100006C14, symSize: 0x10 }
  - { offsetInCU: 0xDB14, offset: 0xDB14, size: 0x8, addend: 0x0, symName: __ZNSt3__118__debug_db_erase_cB7v160006INS_6vectorI3NetNS_9allocatorIS2_EEEEEEvPT_, symObjAddr: 0x3448, symBinAddr: 0x100006EF4, symSize: 0x10 }
  - { offsetInCU: 0xDB45, offset: 0xDB45, size: 0x8, addend: 0x0, symName: __ZNSt3__112__to_addressB7v160006I3NetEEPT_S3_, symObjAddr: 0x3564, symBinAddr: 0x100007010, symSize: 0x14 }
  - { offsetInCU: 0xDB7A, offset: 0xDB7A, size: 0x8, addend: 0x0, symName: __ZNSt3__118__debug_db_erase_cB7v160006INS_6vectorI3PinNS_9allocatorIS2_EEEEEEvPT_, symObjAddr: 0x3920, symBinAddr: 0x1000073CC, symSize: 0x10 }
  - { offsetInCU: 0xDBAB, offset: 0xDBAB, size: 0x8, addend: 0x0, symName: __ZNSt3__112__to_addressB7v160006I3PinEEPT_S3_, symObjAddr: 0x3A3C, symBinAddr: 0x1000074E8, symSize: 0x14 }
  - { offsetInCU: 0xDBE0, offset: 0xDBE0, size: 0x8, addend: 0x0, symName: __ZNSt3__118__debug_db_erase_cB7v160006INS_6vectorI5PointNS_9allocatorIS2_EEEEEEvPT_, symObjAddr: 0x3E10, symBinAddr: 0x1000078BC, symSize: 0x10 }
  - { offsetInCU: 0xDC11, offset: 0xDC11, size: 0x8, addend: 0x0, symName: __ZNSt3__112__to_addressB7v160006I5PointEEPT_S3_, symObjAddr: 0x3F2C, symBinAddr: 0x1000079D8, symSize: 0x14 }
  - { offsetInCU: 0xDC46, offset: 0xDC46, size: 0x8, addend: 0x0, symName: __ZNSt3__112__to_addressB7v160006IKcEEPT_S3_, symObjAddr: 0x42BC, symBinAddr: 0x100007D68, symSize: 0x14 }
  - { offsetInCU: 0xDCAE, offset: 0xDCAE, size: 0x8, addend: 0x0, symName: __ZNSt3__116__pad_and_outputB7v160006IcNS_11char_traitsIcEEEENS_19ostreambuf_iteratorIT_T0_EES6_PKS4_S8_S8_RNS_8ios_baseES4_, symObjAddr: 0x468C, symBinAddr: 0x100008138, symSize: 0x240 }
  - { offsetInCU: 0xDD7D, offset: 0xDD7D, size: 0x8, addend: 0x0, symName: __ZNSt3__19use_facetB7v160006INS_5ctypeIcEEEERKT_RKNS_6localeE, symObjAddr: 0x4BEC, symBinAddr: 0x100008698, symSize: 0x2C }
  - { offsetInCU: 0xE15D, offset: 0xE15D, size: 0x8, addend: 0x0, symName: __ZNSt3__118__constexpr_strlenB7v160006EPKc, symObjAddr: 0x4C50, symBinAddr: 0x1000086FC, symSize: 0x24 }
  - { offsetInCU: 0xE189, offset: 0xE189, size: 0x8, addend: 0x0, symName: __ZNSt3__17getlineB7v160006IcNS_11char_traitsIcEENS_9allocatorIcEEEERNS_13basic_istreamIT_T0_EES9_RNS_12basic_stringIS6_S7_T1_EES6_, symObjAddr: 0x4C74, symBinAddr: 0x100008720, symSize: 0x238 }
  - { offsetInCU: 0xE247, offset: 0xE247, size: 0x8, addend: 0x0, symName: __ZNSt3__125__debug_db_invalidate_allB7v160006INS_12basic_stringIcNS_11char_traitsIcEENS_9allocatorIcEEEEEEvPT_, symObjAddr: 0x5190, symBinAddr: 0x100008C3C, symSize: 0x10 }
  - { offsetInCU: 0xE4AD, offset: 0xE4AD, size: 0x8, addend: 0x0, symName: __ZNSt3__14findB7v160006INS_11__wrap_iterIPcEEcEET_S4_S4_RKT0_, symObjAddr: 0x5548, symBinAddr: 0x100008FF4, symSize: 0x80 }
  - { offsetInCU: 0xE507, offset: 0xE507, size: 0x8, addend: 0x0, symName: __ZNSt3__1neB7v160006IPcEEbRKNS_11__wrap_iterIT_EES6_, symObjAddr: 0x55C8, symBinAddr: 0x100009074, symSize: 0x34 }
  - { offsetInCU: 0xE54A, offset: 0xE54A, size: 0x8, addend: 0x0, symName: __ZNSt3__1eqB7v160006IPcEEbRKNS_11__wrap_iterIT_EES6_, symObjAddr: 0x5634, symBinAddr: 0x1000090E0, symSize: 0x48 }
  - { offsetInCU: 0xE58D, offset: 0xE58D, size: 0x8, addend: 0x0, symName: __ZNSt3__1miB7v160006IPKcPcEEDTmicldtfp_4baseEcldtfp0_4baseEERKNS_11__wrap_iterIT_EERKNS5_IT0_EE, symObjAddr: 0x5694, symBinAddr: 0x100009140, symSize: 0x40 }
  - { offsetInCU: 0xE5D9, offset: 0xE5D9, size: 0x8, addend: 0x0, symName: __ZNSt3__1miB7v160006IPKcS2_EEDTmicldtfp_4baseEcldtfp0_4baseEERKNS_11__wrap_iterIT_EERKNS4_IT0_EE, symObjAddr: 0x56D4, symBinAddr: 0x100009180, symSize: 0x40 }
  - { offsetInCU: 0xE625, offset: 0xE625, size: 0x8, addend: 0x0, symName: __ZNSt3__13maxB7v160006ImEERKT_S3_S3_, symObjAddr: 0x60D8, symBinAddr: 0x100009B84, symSize: 0x2C }
  - { offsetInCU: 0xE668, offset: 0xE668, size: 0x8, addend: 0x0, symName: __ZNSt3__13minB7v160006ImEERKT_S3_S3_, symObjAddr: 0x6104, symBinAddr: 0x100009BB0, symSize: 0x2C }
  - { offsetInCU: 0xE8AC, offset: 0xE8AC, size: 0x8, addend: 0x0, symName: __ZNSt3__13minB7v160006ImNS_6__lessImmEEEERKT_S5_S5_T0_, symObjAddr: 0x6190, symBinAddr: 0x100009C3C, symSize: 0x54 }
  - { offsetInCU: 0xE941, offset: 0xE941, size: 0x8, addend: 0x0, symName: __ZNSt3__120__throw_length_errorB7v160006EPKc, symObjAddr: 0x626C, symBinAddr: 0x100009D18, symSize: 0x64 }
  - { offsetInCU: 0xE969, offset: 0xE969, size: 0x8, addend: 0x0, symName: __ZNSt3__13maxB7v160006ImNS_6__lessImmEEEERKT_S5_S5_T0_, symObjAddr: 0x6350, symBinAddr: 0x100009DFC, symSize: 0x54 }
  - { offsetInCU: 0xE9C3, offset: 0xE9C3, size: 0x8, addend: 0x0, symName: __ZNSt3__119__allocate_at_leastB7v160006INS_9allocatorIiEEEENS_19__allocation_resultINS_16allocator_traitsIT_E7pointerEEERS5_m, symObjAddr: 0x64B4, symBinAddr: 0x100009F60, symSize: 0x40 }
  - { offsetInCU: 0xEA06, offset: 0xEA06, size: 0x8, addend: 0x0, symName: __ZNSt3__117__libcpp_allocateB7v160006Emm, symObjAddr: 0x6638, symBinAddr: 0x10000A0E4, symSize: 0x28 }
  - { offsetInCU: 0xEA43, offset: 0xEA43, size: 0x8, addend: 0x0, symName: __ZNSt3__121__libcpp_operator_newB7v160006IJmEEEPvDpT_, symObjAddr: 0x6660, symBinAddr: 0x10000A10C, symSize: 0x24 }
  - { offsetInCU: 0xEA7C, offset: 0xEA7C, size: 0x8, addend: 0x0, symName: __ZNSt3__142__uninitialized_allocator_move_if_noexceptB7v160006INS_9allocatorIiEENS_16reverse_iteratorIPiEES5_ivEET1_RT_T0_S9_S6_, symObjAddr: 0x66E8, symBinAddr: 0x10000A194, symSize: 0x78 }
  - { offsetInCU: 0xEAF9, offset: 0xEAF9, size: 0x8, addend: 0x0, symName: __ZNSt3__14swapB7v160006IPiEENS_9enable_ifIXaasr21is_move_constructibleIT_EE5valuesr18is_move_assignableIS3_EE5valueEvE4typeERS3_S6_, symObjAddr: 0x67AC, symBinAddr: 0x10000A258, symSize: 0x3C }
  - { offsetInCU: 0xEB4A, offset: 0xEB4A, size: 0x8, addend: 0x0, symName: __ZNSt3__125__debug_db_invalidate_allB7v160006INS_6vectorIiNS_9allocatorIiEEEEEEvPT_, symObjAddr: 0x6894, symBinAddr: 0x10000A340, symSize: 0x10 }
  - { offsetInCU: 0xEB7B, offset: 0xEB7B, size: 0x8, addend: 0x0, symName: __ZNSt3__14moveB7v160006INS_16reverse_iteratorIPiEES3_EET0_T_S5_S4_, symObjAddr: 0x68A4, symBinAddr: 0x10000A350, symSize: 0x78 }
  - { offsetInCU: 0xEBD5, offset: 0xEBD5, size: 0x8, addend: 0x0, symName: __ZNSt3__16__moveB7v160006INS_17_ClassicAlgPolicyENS_16reverse_iteratorIPiEES4_S4_EENS_4pairIT0_T2_EES6_T1_S7_, symObjAddr: 0x691C, symBinAddr: 0x10000A3C8, symSize: 0x64 }
  - { offsetInCU: 0xEC41, offset: 0xEC41, size: 0x8, addend: 0x0, symName: __ZNSt3__123__dispatch_copy_or_moveB7v160006INS_17_ClassicAlgPolicyENS_11__move_loopIS1_EENS_14__move_trivialENS_16reverse_iteratorIPiEES7_S7_EENS_4pairIT2_T4_EES9_T3_SA_, symObjAddr: 0x6980, symBinAddr: 0x10000A42C, symSize: 0x64 }
  - { offsetInCU: 0xECBF, offset: 0xECBF, size: 0x8, addend: 0x0, symName: __ZNSt3__121__unwrap_and_dispatchB7v160006INS_10__overloadINS_11__move_loopINS_17_ClassicAlgPolicyEEENS_14__move_trivialEEENS_16reverse_iteratorIPiEES9_S9_Li0EEENS_4pairIT0_T2_EESB_T1_SC_, symObjAddr: 0x69E4, symBinAddr: 0x10000A490, symSize: 0x12C }
  - { offsetInCU: 0xED4F, offset: 0xED4F, size: 0x8, addend: 0x0, symName: __ZNSt3__114__unwrap_rangeB7v160006INS_16reverse_iteratorIPiEES3_EENS_4pairIT0_S5_EET_S7_, symObjAddr: 0x6B10, symBinAddr: 0x10000A5BC, symSize: 0x84 }
  - { offsetInCU: 0xEF09, offset: 0xEF09, size: 0x8, addend: 0x0, symName: __ZNSt3__113__unwrap_iterB7v160006INS_16reverse_iteratorIPiEENS_18__unwrap_iter_implIS3_Lb0EEELi0EEEDTclsrT0_8__unwrapclsr3stdE7declvalIT_EEEES7_, symObjAddr: 0x6C34, symBinAddr: 0x10000A6E0, symSize: 0x44 }
  - { offsetInCU: 0xEF4D, offset: 0xEF4D, size: 0x8, addend: 0x0, symName: __ZNSt3__19make_pairB7v160006INS_16reverse_iteratorIPiEES3_EENS_4pairINS_18__unwrap_ref_decayIT_E4typeENS5_IT0_E4typeEEEOS6_OS9_, symObjAddr: 0x6C78, symBinAddr: 0x10000A724, symSize: 0x38 }
  - { offsetInCU: 0xEF9C, offset: 0xEF9C, size: 0x8, addend: 0x0, symName: __ZNSt3__114__rewrap_rangeB7v160006INS_16reverse_iteratorIPiEES3_EET_S4_T0_, symObjAddr: 0x6CB0, symBinAddr: 0x10000A75C, symSize: 0x5C }
  - { offsetInCU: 0xEFE8, offset: 0xEFE8, size: 0x8, addend: 0x0, symName: __ZNSt3__113__rewrap_iterB7v160006INS_16reverse_iteratorIPiEES3_NS_18__unwrap_iter_implIS3_Lb0EEEEET_S6_T0_, symObjAddr: 0x6D0C, symBinAddr: 0x10000A7B8, symSize: 0x74 }
  - { offsetInCU: 0xF03D, offset: 0xF03D, size: 0x8, addend: 0x0, symName: __ZNSt3__1neB7v160006IPiS1_EEbRKNS_16reverse_iteratorIT_EERKNS2_IT0_EE, symObjAddr: 0x6D80, symBinAddr: 0x10000A82C, symSize: 0x48 }
  - { offsetInCU: 0xF16E, offset: 0xF16E, size: 0x8, addend: 0x0, symName: __ZNSt3__119__allocate_at_leastB7v160006INS_9allocatorI5PointEEEENS_19__allocation_resultINS_16allocator_traitsIT_E7pointerEEERS6_m, symObjAddr: 0x7880, symBinAddr: 0x10000B32C, symSize: 0x40 }
  - { offsetInCU: 0xF1B1, offset: 0xF1B1, size: 0x8, addend: 0x0, symName: __ZNSt3__142__uninitialized_allocator_move_if_noexceptB7v160006INS_9allocatorI5PointEENS_16reverse_iteratorIPS2_EES6_S2_vEET1_RT_T0_SA_S7_, symObjAddr: 0x7A38, symBinAddr: 0x10000B4E4, symSize: 0x78 }
  - { offsetInCU: 0xF22E, offset: 0xF22E, size: 0x8, addend: 0x0, symName: __ZNSt3__14swapB7v160006IP5PointEENS_9enable_ifIXaasr21is_move_constructibleIT_EE5valuesr18is_move_assignableIS4_EE5valueEvE4typeERS4_S7_, symObjAddr: 0x7AFC, symBinAddr: 0x10000B5A8, symSize: 0x3C }
  - { offsetInCU: 0xF27F, offset: 0xF27F, size: 0x8, addend: 0x0, symName: __ZNSt3__125__debug_db_invalidate_allB7v160006INS_6vectorI5PointNS_9allocatorIS2_EEEEEEvPT_, symObjAddr: 0x7C00, symBinAddr: 0x10000B6AC, symSize: 0x10 }
  - { offsetInCU: 0xF2B0, offset: 0xF2B0, size: 0x8, addend: 0x0, symName: __ZNSt3__14moveB7v160006INS_16reverse_iteratorIP5PointEES4_EET0_T_S6_S5_, symObjAddr: 0x7C10, symBinAddr: 0x10000B6BC, symSize: 0x78 }
  - { offsetInCU: 0xF30A, offset: 0xF30A, size: 0x8, addend: 0x0, symName: __ZNSt3__16__moveB7v160006INS_17_ClassicAlgPolicyENS_16reverse_iteratorIP5PointEES5_S5_EENS_4pairIT0_T2_EES7_T1_S8_, symObjAddr: 0x7C88, symBinAddr: 0x10000B734, symSize: 0x64 }
  - { offsetInCU: 0xF376, offset: 0xF376, size: 0x8, addend: 0x0, symName: __ZNSt3__123__dispatch_copy_or_moveB7v160006INS_17_ClassicAlgPolicyENS_11__move_loopIS1_EENS_14__move_trivialENS_16reverse_iteratorIP5PointEES8_S8_EENS_4pairIT2_T4_EESA_T3_SB_, symObjAddr: 0x7CEC, symBinAddr: 0x10000B798, symSize: 0x64 }
  - { offsetInCU: 0xF3F4, offset: 0xF3F4, size: 0x8, addend: 0x0, symName: __ZNSt3__121__unwrap_and_dispatchB7v160006INS_10__overloadINS_11__move_loopINS_17_ClassicAlgPolicyEEENS_14__move_trivialEEENS_16reverse_iteratorIP5PointEESA_SA_Li0EEENS_4pairIT0_T2_EESC_T1_SD_, symObjAddr: 0x7D50, symBinAddr: 0x10000B7FC, symSize: 0x12C }
  - { offsetInCU: 0xF484, offset: 0xF484, size: 0x8, addend: 0x0, symName: __ZNSt3__114__unwrap_rangeB7v160006INS_16reverse_iteratorIP5PointEES4_EENS_4pairIT0_S6_EET_S8_, symObjAddr: 0x7E7C, symBinAddr: 0x10000B928, symSize: 0x84 }
  - { offsetInCU: 0xF5A4, offset: 0xF5A4, size: 0x8, addend: 0x0, symName: __ZNSt3__113__unwrap_iterB7v160006INS_16reverse_iteratorIP5PointEENS_18__unwrap_iter_implIS4_Lb0EEELi0EEEDTclsrT0_8__unwrapclsr3stdE7declvalIT_EEEES8_, symObjAddr: 0x7FA8, symBinAddr: 0x10000BA54, symSize: 0x44 }
  - { offsetInCU: 0xF5E8, offset: 0xF5E8, size: 0x8, addend: 0x0, symName: __ZNSt3__19make_pairB7v160006INS_16reverse_iteratorIP5PointEES4_EENS_4pairINS_18__unwrap_ref_decayIT_E4typeENS6_IT0_E4typeEEEOS7_OSA_, symObjAddr: 0x7FEC, symBinAddr: 0x10000BA98, symSize: 0x38 }
  - { offsetInCU: 0xF637, offset: 0xF637, size: 0x8, addend: 0x0, symName: __ZNSt3__114__rewrap_rangeB7v160006INS_16reverse_iteratorIP5PointEES4_EET_S5_T0_, symObjAddr: 0x8024, symBinAddr: 0x10000BAD0, symSize: 0x5C }
  - { offsetInCU: 0xF683, offset: 0xF683, size: 0x8, addend: 0x0, symName: __ZNSt3__113__rewrap_iterB7v160006INS_16reverse_iteratorIP5PointEES4_NS_18__unwrap_iter_implIS4_Lb0EEEEET_S7_T0_, symObjAddr: 0x8080, symBinAddr: 0x10000BB2C, symSize: 0x74 }
  - { offsetInCU: 0xF6D8, offset: 0xF6D8, size: 0x8, addend: 0x0, symName: __ZNSt3__1neB7v160006IP5PointS2_EEbRKNS_16reverse_iteratorIT_EERKNS3_IT0_EE, symObjAddr: 0x80F4, symBinAddr: 0x10000BBA0, symSize: 0x48 }
  - { offsetInCU: 0xF790, offset: 0xF790, size: 0x8, addend: 0x0, symName: __ZNSt3__18distanceB7v160006IPiEENS_15iterator_traitsIT_E15difference_typeES3_S3_, symObjAddr: 0x8640, symBinAddr: 0x10000C0EC, symSize: 0x2C }
  - { offsetInCU: 0xF7D3, offset: 0xF7D3, size: 0x8, addend: 0x0, symName: __ZNSt3__14copyB7v160006IPiS1_EET0_T_S3_S2_, symObjAddr: 0x86BC, symBinAddr: 0x10000C168, symSize: 0x40 }
  - { offsetInCU: 0xF82D, offset: 0xF82D, size: 0x8, addend: 0x0, symName: __ZNSt3__110__distanceB7v160006IPiEENS_15iterator_traitsIT_E15difference_typeES3_S3_NS_26random_access_iterator_tagE, symObjAddr: 0x8920, symBinAddr: 0x10000C3CC, symSize: 0x28 }
  - { offsetInCU: 0xF87A, offset: 0xF87A, size: 0x8, addend: 0x0, symName: __ZNSt3__121__convert_to_integralB7v160006Em, symObjAddr: 0x8948, symBinAddr: 0x10000C3F4, symSize: 0x14 }
  - { offsetInCU: 0xF8A6, offset: 0xF8A6, size: 0x8, addend: 0x0, symName: __ZNSt3__19__advanceB7v160006IPiEEvRT_NS_15iterator_traitsIS2_E15difference_typeENS_26random_access_iterator_tagE, symObjAddr: 0x895C, symBinAddr: 0x10000C408, symSize: 0x28 }
  - { offsetInCU: 0xF8EF, offset: 0xF8EF, size: 0x8, addend: 0x0, symName: __ZNSt3__16__copyB7v160006INS_17_ClassicAlgPolicyEPiS2_S2_EENS_4pairIT0_T2_EES4_T1_S5_, symObjAddr: 0x8984, symBinAddr: 0x10000C430, symSize: 0x44 }
  - { offsetInCU: 0xF95B, offset: 0xF95B, size: 0x8, addend: 0x0, symName: __ZNSt3__123__dispatch_copy_or_moveB7v160006INS_17_ClassicAlgPolicyENS_11__copy_loopIS1_EENS_14__copy_trivialEPiS5_S5_EENS_4pairIT2_T4_EES7_T3_S8_, symObjAddr: 0x89C8, symBinAddr: 0x10000C474, symSize: 0x44 }
  - { offsetInCU: 0xF9D9, offset: 0xF9D9, size: 0x8, addend: 0x0, symName: __ZNSt3__121__unwrap_and_dispatchB7v160006INS_10__overloadINS_11__copy_loopINS_17_ClassicAlgPolicyEEENS_14__copy_trivialEEEPiS7_S7_Li0EEENS_4pairIT0_T2_EES9_T1_SA_, symObjAddr: 0x8A0C, symBinAddr: 0x10000C4B8, symSize: 0xB4 }
  - { offsetInCU: 0xFA67, offset: 0xFA67, size: 0x8, addend: 0x0, symName: __ZNSt3__114__unwrap_rangeB7v160006IPiS1_EENS_4pairIT0_S3_EET_S5_, symObjAddr: 0x8AC0, symBinAddr: 0x10000C56C, symSize: 0x60 }
  - { offsetInCU: 0xFC38, offset: 0xFC38, size: 0x8, addend: 0x0, symName: __ZNSt3__113__unwrap_iterB7v160006IPiNS_18__unwrap_iter_implIS1_Lb1EEELi0EEEDTclsrT0_8__unwrapclsr3stdE7declvalIT_EEEES5_, symObjAddr: 0x8B68, symBinAddr: 0x10000C614, symSize: 0x24 }
  - { offsetInCU: 0xFC7C, offset: 0xFC7C, size: 0x8, addend: 0x0, symName: __ZNSt3__19make_pairB7v160006IPiS1_EENS_4pairINS_18__unwrap_ref_decayIT_E4typeENS3_IT0_E4typeEEEOS4_OS7_, symObjAddr: 0x8B8C, symBinAddr: 0x10000C638, symSize: 0x38 }
  - { offsetInCU: 0xFCCB, offset: 0xFCCB, size: 0x8, addend: 0x0, symName: __ZNSt3__114__rewrap_rangeB7v160006IPiS1_EET_S2_T0_, symObjAddr: 0x8BC4, symBinAddr: 0x10000C670, symSize: 0x2C }
  - { offsetInCU: 0xFD17, offset: 0xFD17, size: 0x8, addend: 0x0, symName: __ZNSt3__113__rewrap_iterB7v160006IPiS1_NS_18__unwrap_iter_implIS1_Lb1EEEEET_S4_T0_, symObjAddr: 0x8BF0, symBinAddr: 0x10000C69C, symSize: 0x3C }
  - { offsetInCU: 0xFD6C, offset: 0xFD6C, size: 0x8, addend: 0x0, symName: __ZNSt3__119__copy_trivial_implB7v160006IiiEENS_4pairIPT_PT0_EES3_S3_S5_, symObjAddr: 0x8C2C, symBinAddr: 0x10000C6D8, symSize: 0x84 }
  - { offsetInCU: 0xFDD4, offset: 0xFDD4, size: 0x8, addend: 0x0, symName: __ZNSt3__19make_pairB7v160006IRPiS1_EENS_4pairINS_18__unwrap_ref_decayIT_E4typeENS4_IT0_E4typeEEEOS5_OS8_, symObjAddr: 0x8CB0, symBinAddr: 0x10000C75C, symSize: 0x38 }
  - { offsetInCU: 0xFE76, offset: 0xFE76, size: 0x8, addend: 0x0, symName: __ZNSt3__130__uninitialized_allocator_copyB7v160006INS_9allocatorIiEEPiS3_S3_EET2_RT_T0_T1_S4_, symObjAddr: 0x8E3C, symBinAddr: 0x10000C8E8, symSize: 0xF4 }
  - { offsetInCU: 0xFF14, offset: 0xFF14, size: 0x8, addend: 0x0, symName: __ZNSt3__122__make_exception_guardB7v160006INS_29_AllocatorDestroyRangeReverseINS_9allocatorIiEEPiEEEENS_28__exception_guard_exceptionsIT_EES7_, symObjAddr: 0x8F30, symBinAddr: 0x10000C9DC, symSize: 0x4C }
  - { offsetInCU: 0xFF4A, offset: 0xFF4A, size: 0x8, addend: 0x0, symName: __ZNSt3__119__allocator_destroyB7v160006INS_9allocatorIiEENS_16reverse_iteratorIPiEES5_EEvRT_T0_T1_, symObjAddr: 0x91B8, symBinAddr: 0x10000CC64, symSize: 0x70 }
  - { offsetInCU: 0xFFAD, offset: 0xFFAD, size: 0x8, addend: 0x0, symName: __ZNSt3__112__to_addressB7v160006INS_16reverse_iteratorIPiEEvEENS_5decayIDTclsr19__to_address_helperIT_EE6__callclsr3stdE7declvalIRKS5_EEEEE4typeES7_, symObjAddr: 0x9228, symBinAddr: 0x10000CCD4, symSize: 0x24 }
  - { offsetInCU: 0x1000C, offset: 0x1000C, size: 0x8, addend: 0x0, symName: __ZNSt3__122__make_exception_guardB7v160006INS_6vectorIiNS_9allocatorIiEEE16__destroy_vectorEEENS_28__exception_guard_exceptionsIT_EES7_, symObjAddr: 0x98A0, symBinAddr: 0x10000D34C, symSize: 0x40 }
  - { offsetInCU: 0x10041, offset: 0x10041, size: 0x8, addend: 0x0, symName: __ZNSt3__119__allocate_at_leastB7v160006INS_9allocatorI3PinEEEENS_19__allocation_resultINS_16allocator_traitsIT_E7pointerEEERS6_m, symObjAddr: 0x9EAC, symBinAddr: 0x10000D958, symSize: 0x40 }
  - { offsetInCU: 0x10084, offset: 0x10084, size: 0x8, addend: 0x0, symName: __ZNSt3__142__uninitialized_allocator_move_if_noexceptB7v160006INS_9allocatorI3PinEENS_16reverse_iteratorIPS2_EES6_S6_EET2_RT_T0_T1_S7_, symObjAddr: 0xA060, symBinAddr: 0x10000DB0C, symSize: 0x12C }
  - { offsetInCU: 0x10124, offset: 0x10124, size: 0x8, addend: 0x0, symName: __ZNSt3__14swapB7v160006IP3PinEENS_9enable_ifIXaasr21is_move_constructibleIT_EE5valuesr18is_move_assignableIS4_EE5valueEvE4typeERS4_S7_, symObjAddr: 0xA1D8, symBinAddr: 0x10000DC84, symSize: 0x3C }
  - { offsetInCU: 0x10175, offset: 0x10175, size: 0x8, addend: 0x0, symName: __ZNSt3__125__debug_db_invalidate_allB7v160006INS_6vectorI3PinNS_9allocatorIS2_EEEEEEvPT_, symObjAddr: 0xA2C0, symBinAddr: 0x10000DD6C, symSize: 0x10 }
  - { offsetInCU: 0x101A6, offset: 0x101A6, size: 0x8, addend: 0x0, symName: __ZNSt3__122__make_exception_guardB7v160006INS_29_AllocatorDestroyRangeReverseINS_9allocatorI3PinEENS_16reverse_iteratorIPS3_EEEEEENS_28__exception_guard_exceptionsIT_EESA_, symObjAddr: 0xA2D0, symBinAddr: 0x10000DD7C, symSize: 0x4C }
  - { offsetInCU: 0x101DC, offset: 0x101DC, size: 0x8, addend: 0x0, symName: __ZNSt3__1neB7v160006IP3PinS2_EEbRKNS_16reverse_iteratorIT_EERKNS3_IT0_EE, symObjAddr: 0xA360, symBinAddr: 0x10000DE0C, symSize: 0x48 }
  - { offsetInCU: 0x10228, offset: 0x10228, size: 0x8, addend: 0x0, symName: __ZNSt3__112__to_addressB7v160006INS_16reverse_iteratorIP3PinEEvEENS_5decayIDTclsr19__to_address_helperIT_EE6__callclsr3stdE7declvalIRKS6_EEEEE4typeES8_, symObjAddr: 0xA3DC, symBinAddr: 0x10000DE88, symSize: 0x24 }
  - { offsetInCU: 0x1025E, offset: 0x1025E, size: 0x8, addend: 0x0, symName: __ZNSt3__115__debug_db_swapB7v160006INS_6vectorIiNS_9allocatorIiEEEEEEvPT_S6_, symObjAddr: 0xA6E8, symBinAddr: 0x10000E194, symSize: 0x14 }
  - { offsetInCU: 0x102C6, offset: 0x102C6, size: 0x8, addend: 0x0, symName: __ZNSt3__119__allocator_destroyB7v160006INS_9allocatorI3PinEENS_16reverse_iteratorINS4_IPS2_EEEES7_EEvRT_T0_T1_, symObjAddr: 0xA85C, symBinAddr: 0x10000E308, symSize: 0x70 }
  - { offsetInCU: 0x1032B, offset: 0x1032B, size: 0x8, addend: 0x0, symName: __ZNSt3__1neB7v160006INS_16reverse_iteratorIP3PinEES4_EEbRKNS1_IT_EERKNS1_IT0_EE, symObjAddr: 0xA908, symBinAddr: 0x10000E3B4, symSize: 0x60 }
  - { offsetInCU: 0x10377, offset: 0x10377, size: 0x8, addend: 0x0, symName: __ZNSt3__112__to_addressB7v160006INS_16reverse_iteratorINS1_IP3PinEEEEvEENS_5decayIDTclsr19__to_address_helperIT_EE6__callclsr3stdE7declvalIRKS7_EEEEE4typeES9_, symObjAddr: 0xA968, symBinAddr: 0x10000E414, symSize: 0x24 }
  - { offsetInCU: 0x103D6, offset: 0x103D6, size: 0x8, addend: 0x0, symName: __ZNSt3__119__allocate_at_leastB7v160006INS_9allocatorI3NetEEEENS_19__allocation_resultINS_16allocator_traitsIT_E7pointerEEERS6_m, symObjAddr: 0xB504, symBinAddr: 0x10000EFB0, symSize: 0x40 }
  - { offsetInCU: 0x10419, offset: 0x10419, size: 0x8, addend: 0x0, symName: __ZNSt3__142__uninitialized_allocator_move_if_noexceptB7v160006INS_9allocatorI3NetEENS_16reverse_iteratorIPS2_EES6_S6_EET2_RT_T0_T1_S7_, symObjAddr: 0xB6BC, symBinAddr: 0x10000F168, symSize: 0x12C }
  - { offsetInCU: 0x104B9, offset: 0x104B9, size: 0x8, addend: 0x0, symName: __ZNSt3__14swapB7v160006IP3NetEENS_9enable_ifIXaasr21is_move_constructibleIT_EE5valuesr18is_move_assignableIS4_EE5valueEvE4typeERS4_S7_, symObjAddr: 0xB834, symBinAddr: 0x10000F2E0, symSize: 0x3C }
  - { offsetInCU: 0x1050A, offset: 0x1050A, size: 0x8, addend: 0x0, symName: __ZNSt3__125__debug_db_invalidate_allB7v160006INS_6vectorI3NetNS_9allocatorIS2_EEEEEEvPT_, symObjAddr: 0xB938, symBinAddr: 0x10000F3E4, symSize: 0x10 }
  - { offsetInCU: 0x1053B, offset: 0x1053B, size: 0x8, addend: 0x0, symName: __ZNSt3__122__make_exception_guardB7v160006INS_29_AllocatorDestroyRangeReverseINS_9allocatorI3NetEENS_16reverse_iteratorIPS3_EEEEEENS_28__exception_guard_exceptionsIT_EESA_, symObjAddr: 0xB948, symBinAddr: 0x10000F3F4, symSize: 0x4C }
  - { offsetInCU: 0x10571, offset: 0x10571, size: 0x8, addend: 0x0, symName: __ZNSt3__1neB7v160006IP3NetS2_EEbRKNS_16reverse_iteratorIT_EERKNS3_IT0_EE, symObjAddr: 0xB9D8, symBinAddr: 0x10000F484, symSize: 0x48 }
  - { offsetInCU: 0x105BD, offset: 0x105BD, size: 0x8, addend: 0x0, symName: __ZNSt3__112__to_addressB7v160006INS_16reverse_iteratorIP3NetEEvEENS_5decayIDTclsr19__to_address_helperIT_EE6__callclsr3stdE7declvalIRKS6_EEEEE4typeES8_, symObjAddr: 0xBA54, symBinAddr: 0x10000F500, symSize: 0x24 }
  - { offsetInCU: 0x105F3, offset: 0x105F3, size: 0x8, addend: 0x0, symName: __ZNSt3__115__debug_db_swapB7v160006INS_12basic_stringIcNS_11char_traitsIcEENS_9allocatorIcEEEEEEvPT_S8_, symObjAddr: 0xBD18, symBinAddr: 0x10000F7C4, symSize: 0x14 }
  - { offsetInCU: 0x1065B, offset: 0x1065B, size: 0x8, addend: 0x0, symName: __ZNSt3__119__allocator_destroyB7v160006INS_9allocatorI3NetEENS_16reverse_iteratorINS4_IPS2_EEEES7_EEvRT_T0_T1_, symObjAddr: 0xBE8C, symBinAddr: 0x10000F938, symSize: 0x70 }
  - { offsetInCU: 0x106C0, offset: 0x106C0, size: 0x8, addend: 0x0, symName: __ZNSt3__1neB7v160006INS_16reverse_iteratorIP3NetEES4_EEbRKNS1_IT_EERKNS1_IT0_EE, symObjAddr: 0xBF38, symBinAddr: 0x10000F9E4, symSize: 0x60 }
  - { offsetInCU: 0x1070C, offset: 0x1070C, size: 0x8, addend: 0x0, symName: __ZNSt3__112__to_addressB7v160006INS_16reverse_iteratorINS1_IP3NetEEEEvEENS_5decayIDTclsr19__to_address_helperIT_EE6__callclsr3stdE7declvalIRKS7_EEEEE4typeES9_, symObjAddr: 0xBF98, symBinAddr: 0x10000FA44, symSize: 0x24 }
  - { offsetInCU: 0x1076B, offset: 0x1076B, size: 0x8, addend: 0x0, symName: __ZNSt3__18distanceB7v160006IP3NetEENS_15iterator_traitsIT_E15difference_typeES4_S4_, symObjAddr: 0xC4BC, symBinAddr: 0x10000FF68, symSize: 0x2C }
  - { offsetInCU: 0x107AE, offset: 0x107AE, size: 0x8, addend: 0x0, symName: __ZNSt3__14copyB7v160006IP3NetS2_EET0_T_S4_S3_, symObjAddr: 0xC538, symBinAddr: 0x10000FFE4, symSize: 0x40 }
  - { offsetInCU: 0x10808, offset: 0x10808, size: 0x8, addend: 0x0, symName: __ZNSt3__110__distanceB7v160006IP3NetEENS_15iterator_traitsIT_E15difference_typeES4_S4_NS_26random_access_iterator_tagE, symObjAddr: 0xC7A4, symBinAddr: 0x100010250, symSize: 0x28 }
  - { offsetInCU: 0x10855, offset: 0x10855, size: 0x8, addend: 0x0, symName: __ZNSt3__19__advanceB7v160006IP3NetEEvRT_NS_15iterator_traitsIS3_E15difference_typeENS_26random_access_iterator_tagE, symObjAddr: 0xC7CC, symBinAddr: 0x100010278, symSize: 0x30 }
  - { offsetInCU: 0x1089E, offset: 0x1089E, size: 0x8, addend: 0x0, symName: __ZNSt3__16__copyB7v160006INS_17_ClassicAlgPolicyEP3NetS3_S3_EENS_4pairIT0_T2_EES5_T1_S6_, symObjAddr: 0xC7FC, symBinAddr: 0x1000102A8, symSize: 0x44 }
  - { offsetInCU: 0x1090A, offset: 0x1090A, size: 0x8, addend: 0x0, symName: __ZNSt3__123__dispatch_copy_or_moveB7v160006INS_17_ClassicAlgPolicyENS_11__copy_loopIS1_EENS_14__copy_trivialEP3NetS6_S6_EENS_4pairIT2_T4_EES8_T3_S9_, symObjAddr: 0xC840, symBinAddr: 0x1000102EC, symSize: 0x44 }
  - { offsetInCU: 0x10988, offset: 0x10988, size: 0x8, addend: 0x0, symName: __ZNSt3__121__unwrap_and_dispatchB7v160006INS_10__overloadINS_11__copy_loopINS_17_ClassicAlgPolicyEEENS_14__copy_trivialEEEP3NetS8_S8_Li0EEENS_4pairIT0_T2_EESA_T1_SB_, symObjAddr: 0xC884, symBinAddr: 0x100010330, symSize: 0xB4 }
  - { offsetInCU: 0x10A16, offset: 0x10A16, size: 0x8, addend: 0x0, symName: __ZNSt3__114__unwrap_rangeB7v160006IP3NetS2_EENS_4pairIT0_S4_EET_S6_, symObjAddr: 0xC938, symBinAddr: 0x1000103E4, symSize: 0x60 }
  - { offsetInCU: 0x10BC7, offset: 0x10BC7, size: 0x8, addend: 0x0, symName: __ZNSt3__113__unwrap_iterB7v160006IP3NetNS_18__unwrap_iter_implIS2_Lb1EEELi0EEEDTclsrT0_8__unwrapclsr3stdE7declvalIT_EEEES6_, symObjAddr: 0xCA20, symBinAddr: 0x1000104CC, symSize: 0x24 }
  - { offsetInCU: 0x10C0B, offset: 0x10C0B, size: 0x8, addend: 0x0, symName: __ZNSt3__19make_pairB7v160006IP3NetS2_EENS_4pairINS_18__unwrap_ref_decayIT_E4typeENS4_IT0_E4typeEEEOS5_OS8_, symObjAddr: 0xCA44, symBinAddr: 0x1000104F0, symSize: 0x38 }
  - { offsetInCU: 0x10C5A, offset: 0x10C5A, size: 0x8, addend: 0x0, symName: __ZNSt3__114__rewrap_rangeB7v160006IP3NetS2_EET_S3_T0_, symObjAddr: 0xCA7C, symBinAddr: 0x100010528, symSize: 0x2C }
  - { offsetInCU: 0x10CA6, offset: 0x10CA6, size: 0x8, addend: 0x0, symName: __ZNSt3__113__rewrap_iterB7v160006IP3NetS2_NS_18__unwrap_iter_implIS2_Lb1EEEEET_S5_T0_, symObjAddr: 0xCAA8, symBinAddr: 0x100010554, symSize: 0x3C }
  - { offsetInCU: 0x10D4E, offset: 0x10D4E, size: 0x8, addend: 0x0, symName: __ZNSt3__130__uninitialized_allocator_copyB7v160006INS_9allocatorI3NetEEPS2_S4_S4_EET2_RT_T0_T1_S5_, symObjAddr: 0xCC2C, symBinAddr: 0x1000106D8, symSize: 0xF4 }
  - { offsetInCU: 0x10DEC, offset: 0x10DEC, size: 0x8, addend: 0x0, symName: __ZNSt3__122__make_exception_guardB7v160006INS_29_AllocatorDestroyRangeReverseINS_9allocatorI3NetEEPS3_EEEENS_28__exception_guard_exceptionsIT_EES8_, symObjAddr: 0xCD20, symBinAddr: 0x1000107CC, symSize: 0x4C }
  - { offsetInCU: 0x10E22, offset: 0x10E22, size: 0x8, addend: 0x0, symName: __ZNSt3__119__allocator_destroyB7v160006INS_9allocatorI3NetEENS_16reverse_iteratorIPS2_EES6_EEvRT_T0_T1_, symObjAddr: 0xCF4C, symBinAddr: 0x1000109F8, symSize: 0x70 }
  - { offsetInCU: 0x10E85, offset: 0x10E85, size: 0x8, addend: 0x0, symName: __ZNSt3__18distanceB7v160006IP3PinEENS_15iterator_traitsIT_E15difference_typeES4_S4_, symObjAddr: 0xD2A8, symBinAddr: 0x100010D54, symSize: 0x2C }
  - { offsetInCU: 0x10EC8, offset: 0x10EC8, size: 0x8, addend: 0x0, symName: __ZNSt3__14copyB7v160006IP3PinS2_EET0_T_S4_S3_, symObjAddr: 0xD324, symBinAddr: 0x100010DD0, symSize: 0x40 }
  - { offsetInCU: 0x10F22, offset: 0x10F22, size: 0x8, addend: 0x0, symName: __ZNSt3__110__distanceB7v160006IP3PinEENS_15iterator_traitsIT_E15difference_typeES4_S4_NS_26random_access_iterator_tagE, symObjAddr: 0xD588, symBinAddr: 0x100011034, symSize: 0x28 }
  - { offsetInCU: 0x10F6F, offset: 0x10F6F, size: 0x8, addend: 0x0, symName: __ZNSt3__19__advanceB7v160006IP3PinEEvRT_NS_15iterator_traitsIS3_E15difference_typeENS_26random_access_iterator_tagE, symObjAddr: 0xD5B0, symBinAddr: 0x10001105C, symSize: 0x28 }
  - { offsetInCU: 0x10FB8, offset: 0x10FB8, size: 0x8, addend: 0x0, symName: __ZNSt3__16__copyB7v160006INS_17_ClassicAlgPolicyEP3PinS3_S3_EENS_4pairIT0_T2_EES5_T1_S6_, symObjAddr: 0xD5D8, symBinAddr: 0x100011084, symSize: 0x44 }
  - { offsetInCU: 0x11024, offset: 0x11024, size: 0x8, addend: 0x0, symName: __ZNSt3__123__dispatch_copy_or_moveB7v160006INS_17_ClassicAlgPolicyENS_11__copy_loopIS1_EENS_14__copy_trivialEP3PinS6_S6_EENS_4pairIT2_T4_EES8_T3_S9_, symObjAddr: 0xD61C, symBinAddr: 0x1000110C8, symSize: 0x44 }
  - { offsetInCU: 0x110A2, offset: 0x110A2, size: 0x8, addend: 0x0, symName: __ZNSt3__121__unwrap_and_dispatchB7v160006INS_10__overloadINS_11__copy_loopINS_17_ClassicAlgPolicyEEENS_14__copy_trivialEEEP3PinS8_S8_Li0EEENS_4pairIT0_T2_EESA_T1_SB_, symObjAddr: 0xD660, symBinAddr: 0x10001110C, symSize: 0xB4 }
  - { offsetInCU: 0x11130, offset: 0x11130, size: 0x8, addend: 0x0, symName: __ZNSt3__114__unwrap_rangeB7v160006IP3PinS2_EENS_4pairIT0_S4_EET_S6_, symObjAddr: 0xD714, symBinAddr: 0x1000111C0, symSize: 0x60 }
  - { offsetInCU: 0x11250, offset: 0x11250, size: 0x8, addend: 0x0, symName: __ZNSt3__113__unwrap_iterB7v160006IP3PinNS_18__unwrap_iter_implIS2_Lb1EEELi0EEEDTclsrT0_8__unwrapclsr3stdE7declvalIT_EEEES6_, symObjAddr: 0xD7FC, symBinAddr: 0x1000112A8, symSize: 0x24 }
  - { offsetInCU: 0x11294, offset: 0x11294, size: 0x8, addend: 0x0, symName: __ZNSt3__19make_pairB7v160006IP3PinS2_EENS_4pairINS_18__unwrap_ref_decayIT_E4typeENS4_IT0_E4typeEEEOS5_OS8_, symObjAddr: 0xD820, symBinAddr: 0x1000112CC, symSize: 0x38 }
  - { offsetInCU: 0x112E3, offset: 0x112E3, size: 0x8, addend: 0x0, symName: __ZNSt3__114__rewrap_rangeB7v160006IP3PinS2_EET_S3_T0_, symObjAddr: 0xD858, symBinAddr: 0x100011304, symSize: 0x2C }
  - { offsetInCU: 0x1132F, offset: 0x1132F, size: 0x8, addend: 0x0, symName: __ZNSt3__113__rewrap_iterB7v160006IP3PinS2_NS_18__unwrap_iter_implIS2_Lb1EEEEET_S5_T0_, symObjAddr: 0xD884, symBinAddr: 0x100011330, symSize: 0x3C }
  - { offsetInCU: 0x113D7, offset: 0x113D7, size: 0x8, addend: 0x0, symName: __ZNSt3__130__uninitialized_allocator_copyB7v160006INS_9allocatorI3PinEEPS2_S4_S4_EET2_RT_T0_T1_S5_, symObjAddr: 0xD9EC, symBinAddr: 0x100011498, symSize: 0xF4 }
  - { offsetInCU: 0x11475, offset: 0x11475, size: 0x8, addend: 0x0, symName: __ZNSt3__122__make_exception_guardB7v160006INS_29_AllocatorDestroyRangeReverseINS_9allocatorI3PinEEPS3_EEEENS_28__exception_guard_exceptionsIT_EES8_, symObjAddr: 0xDAE0, symBinAddr: 0x10001158C, symSize: 0x4C }
  - { offsetInCU: 0x114AB, offset: 0x114AB, size: 0x8, addend: 0x0, symName: __ZNSt3__119__allocator_destroyB7v160006INS_9allocatorI3PinEENS_16reverse_iteratorIPS2_EES6_EEvRT_T0_T1_, symObjAddr: 0xDD0C, symBinAddr: 0x1000117B8, symSize: 0x70 }
  - { offsetInCU: 0x1150E, offset: 0x1150E, size: 0x8, addend: 0x0, symName: __ZNSt3__18distanceB7v160006IP5PointEENS_15iterator_traitsIT_E15difference_typeES4_S4_, symObjAddr: 0xE04C, symBinAddr: 0x100011AF8, symSize: 0x2C }
  - { offsetInCU: 0x11551, offset: 0x11551, size: 0x8, addend: 0x0, symName: __ZNSt3__14copyB7v160006IP5PointS2_EET0_T_S4_S3_, symObjAddr: 0xE0C8, symBinAddr: 0x100011B74, symSize: 0x40 }
  - { offsetInCU: 0x115AB, offset: 0x115AB, size: 0x8, addend: 0x0, symName: __ZNSt3__110__distanceB7v160006IP5PointEENS_15iterator_traitsIT_E15difference_typeES4_S4_NS_26random_access_iterator_tagE, symObjAddr: 0xE334, symBinAddr: 0x100011DE0, symSize: 0x28 }
  - { offsetInCU: 0x115F8, offset: 0x115F8, size: 0x8, addend: 0x0, symName: __ZNSt3__19__advanceB7v160006IP5PointEEvRT_NS_15iterator_traitsIS3_E15difference_typeENS_26random_access_iterator_tagE, symObjAddr: 0xE35C, symBinAddr: 0x100011E08, symSize: 0x30 }
  - { offsetInCU: 0x11641, offset: 0x11641, size: 0x8, addend: 0x0, symName: __ZNSt3__16__copyB7v160006INS_17_ClassicAlgPolicyEP5PointS3_S3_EENS_4pairIT0_T2_EES5_T1_S6_, symObjAddr: 0xE38C, symBinAddr: 0x100011E38, symSize: 0x44 }
  - { offsetInCU: 0x116AD, offset: 0x116AD, size: 0x8, addend: 0x0, symName: __ZNSt3__123__dispatch_copy_or_moveB7v160006INS_17_ClassicAlgPolicyENS_11__copy_loopIS1_EENS_14__copy_trivialEP5PointS6_S6_EENS_4pairIT2_T4_EES8_T3_S9_, symObjAddr: 0xE3D0, symBinAddr: 0x100011E7C, symSize: 0x44 }
  - { offsetInCU: 0x1172B, offset: 0x1172B, size: 0x8, addend: 0x0, symName: __ZNSt3__121__unwrap_and_dispatchB7v160006INS_10__overloadINS_11__copy_loopINS_17_ClassicAlgPolicyEEENS_14__copy_trivialEEEP5PointS8_S8_Li0EEENS_4pairIT0_T2_EESA_T1_SB_, symObjAddr: 0xE414, symBinAddr: 0x100011EC0, symSize: 0xB4 }
  - { offsetInCU: 0x117B9, offset: 0x117B9, size: 0x8, addend: 0x0, symName: __ZNSt3__114__unwrap_rangeB7v160006IP5PointS2_EENS_4pairIT0_S4_EET_S6_, symObjAddr: 0xE4C8, symBinAddr: 0x100011F74, symSize: 0x60 }
  - { offsetInCU: 0x11908, offset: 0x11908, size: 0x8, addend: 0x0, symName: __ZNSt3__113__unwrap_iterB7v160006IP5PointNS_18__unwrap_iter_implIS2_Lb1EEELi0EEEDTclsrT0_8__unwrapclsr3stdE7declvalIT_EEEES6_, symObjAddr: 0xE570, symBinAddr: 0x10001201C, symSize: 0x24 }
  - { offsetInCU: 0x1194C, offset: 0x1194C, size: 0x8, addend: 0x0, symName: __ZNSt3__19make_pairB7v160006IP5PointS2_EENS_4pairINS_18__unwrap_ref_decayIT_E4typeENS4_IT0_E4typeEEEOS5_OS8_, symObjAddr: 0xE594, symBinAddr: 0x100012040, symSize: 0x38 }
  - { offsetInCU: 0x1199B, offset: 0x1199B, size: 0x8, addend: 0x0, symName: __ZNSt3__114__rewrap_rangeB7v160006IP5PointS2_EET_S3_T0_, symObjAddr: 0xE5CC, symBinAddr: 0x100012078, symSize: 0x2C }
  - { offsetInCU: 0x119E7, offset: 0x119E7, size: 0x8, addend: 0x0, symName: __ZNSt3__113__rewrap_iterB7v160006IP5PointS2_NS_18__unwrap_iter_implIS2_Lb1EEEEET_S5_T0_, symObjAddr: 0xE5F8, symBinAddr: 0x1000120A4, symSize: 0x3C }
  - { offsetInCU: 0x11A3C, offset: 0x11A3C, size: 0x8, addend: 0x0, symName: __ZNSt3__119__copy_trivial_implB7v160006I5PointS1_EENS_4pairIPT_PT0_EES4_S4_S6_, symObjAddr: 0xE634, symBinAddr: 0x1000120E0, symSize: 0x8C }
  - { offsetInCU: 0x11AA4, offset: 0x11AA4, size: 0x8, addend: 0x0, symName: __ZNSt3__19make_pairB7v160006IRP5PointS2_EENS_4pairINS_18__unwrap_ref_decayIT_E4typeENS5_IT0_E4typeEEEOS6_OS9_, symObjAddr: 0xE6C0, symBinAddr: 0x10001216C, symSize: 0x38 }
  - { offsetInCU: 0x11B46, offset: 0x11B46, size: 0x8, addend: 0x0, symName: __ZNSt3__130__uninitialized_allocator_copyB7v160006INS_9allocatorI5PointEEPS2_S4_S4_EET2_RT_T0_T1_S5_, symObjAddr: 0xE854, symBinAddr: 0x100012300, symSize: 0xF4 }
  - { offsetInCU: 0x11BE4, offset: 0x11BE4, size: 0x8, addend: 0x0, symName: __ZNSt3__122__make_exception_guardB7v160006INS_29_AllocatorDestroyRangeReverseINS_9allocatorI5PointEEPS3_EEEENS_28__exception_guard_exceptionsIT_EES8_, symObjAddr: 0xE948, symBinAddr: 0x1000123F4, symSize: 0x4C }
  - { offsetInCU: 0x11C1A, offset: 0x11C1A, size: 0x8, addend: 0x0, symName: __ZNSt3__119__allocator_destroyB7v160006INS_9allocatorI5PointEENS_16reverse_iteratorIPS2_EES6_EEvRT_T0_T1_, symObjAddr: 0xEB74, symBinAddr: 0x100012620, symSize: 0x70 }
  - { offsetInCU: 0x11C7D, offset: 0x11C7D, size: 0x8, addend: 0x0, symName: __ZNSt3__112__to_addressB7v160006INS_16reverse_iteratorIP5PointEEvEENS_5decayIDTclsr19__to_address_helperIT_EE6__callclsr3stdE7declvalIRKS6_EEEEE4typeES8_, symObjAddr: 0xEBE4, symBinAddr: 0x100012690, symSize: 0x24 }
  - { offsetInCU: 0x12278, offset: 0x12278, size: 0x8, addend: 0x0, symName: __ZSt28__throw_bad_array_new_lengthB7v160006v, symObjAddr: 0x6604, symBinAddr: 0x10000A0B0, symSize: 0x34 }
  - { offsetInCU: 0x12E67, offset: 0x12E67, size: 0x8, addend: 0x0, symName: __ZNSt3__16vectorIiNS_9allocatorIiEEE26__swap_out_circular_bufferERNS_14__split_bufferIiRS2_EE, symObjAddr: 0x5F18, symBinAddr: 0x1000099C4, symSize: 0x118 }
  - { offsetInCU: 0x12EBE, offset: 0x12EBE, size: 0x8, addend: 0x0, symName: __ZNSt3__16vectorI5PointNS_9allocatorIS1_EEE26__swap_out_circular_bufferERNS_14__split_bufferIS1_RS3_EE, symObjAddr: 0x7508, symBinAddr: 0x10000AFB4, symSize: 0x118 }
  - { offsetInCU: 0x12F56, offset: 0x12F56, size: 0x8, addend: 0x0, symName: __ZNSt3__16vectorI3PinNS_9allocatorIS1_EEE26__swap_out_circular_bufferERNS_14__split_bufferIS1_RS3_EE, symObjAddr: 0x9B44, symBinAddr: 0x10000D5F0, symSize: 0x118 }
  - { offsetInCU: 0x12FE9, offset: 0x12FE9, size: 0x8, addend: 0x0, symName: __ZNSt3__16vectorI3NetNS_9allocatorIS1_EEE26__swap_out_circular_bufferERNS_14__split_bufferIS1_RS3_EE, symObjAddr: 0xB184, symBinAddr: 0x10000EC30, symSize: 0x118 }
  - { offsetInCU: 0x1530F, offset: 0x1530F, size: 0x8, addend: 0x0, symName: __Z7readNetRKNSt3__112basic_stringIcNS_11char_traitsIcEENS_9allocatorIcEEEER7NetList, symObjAddr: 0x0, symBinAddr: 0x100003AAC, symSize: 0x8A8 }
  - { offsetInCU: 0x1559F, offset: 0x1559F, size: 0x8, addend: 0x0, symName: __ZNSt3__114basic_ifstreamIcNS_11char_traitsIcEEEC1ERKNS_12basic_stringIcS2_NS_9allocatorIcEEEEj, symObjAddr: 0x8A8, symBinAddr: 0x100004354, symSize: 0x16C }
  - { offsetInCU: 0x155E9, offset: 0x155E9, size: 0x8, addend: 0x0, symName: __ZNKSt3__114basic_ifstreamIcNS_11char_traitsIcEEE7is_openEv, symObjAddr: 0xA14, symBinAddr: 0x1000044C0, symSize: 0x2C }
  - { offsetInCU: 0x15611, offset: 0x15611, size: 0x8, addend: 0x0, symName: __ZNSt3__113basic_ostreamIcNS_11char_traitsIcEEElsB7v160006EPFRS3_S4_E, symObjAddr: 0xA88, symBinAddr: 0x100004534, symSize: 0x2C }
  - { offsetInCU: 0x15645, offset: 0x15645, size: 0x8, addend: 0x0, symName: __ZNSt3__16vectorI3NetNS_9allocatorIS1_EEEC1B7v160006Ev, symObjAddr: 0xB0C, symBinAddr: 0x1000045B8, symSize: 0x2C }
  - { offsetInCU: 0x1566F, offset: 0x1566F, size: 0x8, addend: 0x0, symName: __ZNSt3__16vectorI3PinNS_9allocatorIS1_EEEC1B7v160006Ev, symObjAddr: 0xB38, symBinAddr: 0x1000045E4, symSize: 0x2C }
  - { offsetInCU: 0x15699, offset: 0x15699, size: 0x8, addend: 0x0, symName: __ZNSt3__16vectorI5PointNS_9allocatorIS1_EEEC1B7v160006Ev, symObjAddr: 0xB64, symBinAddr: 0x100004610, symSize: 0x2C }
  - { offsetInCU: 0x156C3, offset: 0x156C3, size: 0x8, addend: 0x0, symName: __ZNSt3__112basic_stringIcNS_11char_traitsIcEENS_9allocatorIcEEEC1B7v160006Ev, symObjAddr: 0xB90, symBinAddr: 0x10000463C, symSize: 0x2C }
  - { offsetInCU: 0x156ED, offset: 0x156ED, size: 0x8, addend: 0x0, symName: __ZNKSt3__19basic_iosIcNS_11char_traitsIcEEEcvbB7v160006Ev, symObjAddr: 0xC18, symBinAddr: 0x1000046C4, symSize: 0x2C }
  - { offsetInCU: 0x15713, offset: 0x15713, size: 0x8, addend: 0x0, symName: __ZN3NetC1EiRKNSt3__112basic_stringIcNS0_11char_traitsIcEENS0_9allocatorIcEEEE, symObjAddr: 0xC44, symBinAddr: 0x1000046F0, symSize: 0x3C }
  - { offsetInCU: 0x15759, offset: 0x15759, size: 0x8, addend: 0x0, symName: __ZNSt3__16vectorIiNS_9allocatorIiEEEC1B7v160006Ev, symObjAddr: 0xC80, symBinAddr: 0x10000472C, symSize: 0x2C }
  - { offsetInCU: 0x15783, offset: 0x15783, size: 0x8, addend: 0x0, symName: __ZN3PinC1Eii, symObjAddr: 0xD58, symBinAddr: 0x100004804, symSize: 0x3C }
  - { offsetInCU: 0x157C9, offset: 0x157C9, size: 0x8, addend: 0x0, symName: __ZNSt3__112basic_stringIcNS_11char_traitsIcEENS_9allocatorIcEEE5eraseB7v160006ENS_11__wrap_iterIPKcEES9_, symObjAddr: 0xD94, symBinAddr: 0x100004840, symSize: 0x98 }
  - { offsetInCU: 0x1582D, offset: 0x1582D, size: 0x8, addend: 0x0, symName: __ZNSt3__112basic_stringIcNS_11char_traitsIcEENS_9allocatorIcEEE5beginB7v160006Ev, symObjAddr: 0xF34, symBinAddr: 0x1000049E0, symSize: 0x4C }
  - { offsetInCU: 0x15853, offset: 0x15853, size: 0x8, addend: 0x0, symName: __ZNSt3__112basic_stringIcNS_11char_traitsIcEENS_9allocatorIcEEE3endB7v160006Ev, symObjAddr: 0xF80, symBinAddr: 0x100004A2C, symSize: 0x54 }
  - { offsetInCU: 0x15883, offset: 0x15883, size: 0x8, addend: 0x0, symName: __ZNSt3__111__wrap_iterIPKcEC1B7v160006IPcEERKNS0_IT_EEPNS_9enable_ifIXsr14is_convertibleIS6_S2_EE5valueEvE4typeE, symObjAddr: 0xFD4, symBinAddr: 0x100004A80, symSize: 0x3C }
  - { offsetInCU: 0x1591E, offset: 0x1591E, size: 0x8, addend: 0x0, symName: __ZNSt3__119basic_istringstreamIcNS_11char_traitsIcEENS_9allocatorIcEEEC1B7v160006ERKNS_12basic_stringIcS2_S4_EEj, symObjAddr: 0x1010, symBinAddr: 0x100004ABC, symSize: 0xFC }
  - { offsetInCU: 0x15966, offset: 0x15966, size: 0x8, addend: 0x0, symName: __ZNKSt3__19basic_iosIcNS_11char_traitsIcEEE3eofB7v160006Ev, symObjAddr: 0x110C, symBinAddr: 0x100004BB8, symSize: 0x28 }
  - { offsetInCU: 0x1598C, offset: 0x1598C, size: 0x8, addend: 0x0, symName: __ZNSt3__113basic_istreamIcNS_11char_traitsIcEEErsB7v160006EPFRS3_S4_E, symObjAddr: 0x12C0, symBinAddr: 0x100004D6C, symSize: 0x2C }
  - { offsetInCU: 0x159C0, offset: 0x159C0, size: 0x8, addend: 0x0, symName: __ZN5PointC1Eiiiii, symObjAddr: 0x1524, symBinAddr: 0x100004FD0, symSize: 0x54 }
  - { offsetInCU: 0x15A30, offset: 0x15A30, size: 0x8, addend: 0x0, symName: __ZNSt3__16vectorIiNS_9allocatorIiEEE9push_backB7v160006ERKi, symObjAddr: 0x1578, symBinAddr: 0x100005024, symSize: 0x6C }
  - { offsetInCU: 0x15A67, offset: 0x15A67, size: 0x8, addend: 0x0, symName: __ZNSt3__16vectorI5PointNS_9allocatorIS1_EEE12emplace_backIJRS1_EEEvDpOT_, symObjAddr: 0x15E4, symBinAddr: 0x100005090, symSize: 0x6C }
  - { offsetInCU: 0x15AA9, offset: 0x15AA9, size: 0x8, addend: 0x0, symName: __ZNSt3__16vectorIiNS_9allocatorIiEEEaSB7v160006ERKS3_, symObjAddr: 0x1650, symBinAddr: 0x1000050FC, symSize: 0x68 }
  - { offsetInCU: 0x15AE0, offset: 0x15AE0, size: 0x8, addend: 0x0, symName: __ZNKSt3__16vectorIiNS_9allocatorIiEEE4sizeB7v160006Ev, symObjAddr: 0x16B8, symBinAddr: 0x100005164, symSize: 0x28 }
  - { offsetInCU: 0x15B06, offset: 0x15B06, size: 0x8, addend: 0x0, symName: __ZNSt3__16vectorI3PinNS_9allocatorIS1_EEE12emplace_backIJRS1_EEEvDpOT_, symObjAddr: 0x16E0, symBinAddr: 0x10000518C, symSize: 0x6C }
  - { offsetInCU: 0x15B4D, offset: 0x15B4D, size: 0x8, addend: 0x0, symName: __ZNSt3__119basic_istringstreamIcNS_11char_traitsIcEENS_9allocatorIcEEED1Ev, symObjAddr: 0x174C, symBinAddr: 0x1000051F8, symSize: 0x40 }
  - { offsetInCU: 0x15B7A, offset: 0x15B7A, size: 0x8, addend: 0x0, symName: __ZNSt3__16vectorIiNS_9allocatorIiEEED1B7v160006Ev, symObjAddr: 0x178C, symBinAddr: 0x100005238, symSize: 0x2C }
  - { offsetInCU: 0x15BA4, offset: 0x15BA4, size: 0x8, addend: 0x0, symName: __ZN3PinD1Ev, symObjAddr: 0x17B8, symBinAddr: 0x100005264, symSize: 0x2C }
  - { offsetInCU: 0x15BD0, offset: 0x15BD0, size: 0x8, addend: 0x0, symName: __ZNSt3__16vectorI3NetNS_9allocatorIS1_EEE12emplace_backIJRS1_EEEvDpOT_, symObjAddr: 0x17E4, symBinAddr: 0x100005290, symSize: 0x6C }
  - { offsetInCU: 0x15C12, offset: 0x15C12, size: 0x8, addend: 0x0, symName: __ZN3NetD1Ev, symObjAddr: 0x1850, symBinAddr: 0x1000052FC, symSize: 0x2C }
  - { offsetInCU: 0x15C3E, offset: 0x15C3E, size: 0x8, addend: 0x0, symName: __ZNKSt3__16vectorI3NetNS_9allocatorIS1_EEE4sizeB7v160006Ev, symObjAddr: 0x187C, symBinAddr: 0x100005328, symSize: 0x28 }
  - { offsetInCU: 0x15C64, offset: 0x15C64, size: 0x8, addend: 0x0, symName: __ZNKSt3__16vectorI3PinNS_9allocatorIS1_EEE4sizeB7v160006Ev, symObjAddr: 0x18A4, symBinAddr: 0x100005350, symSize: 0x28 }
  - { offsetInCU: 0x15C8A, offset: 0x15C8A, size: 0x8, addend: 0x0, symName: __ZNKSt3__16vectorI5PointNS_9allocatorIS1_EEE4sizeB7v160006Ev, symObjAddr: 0x18CC, symBinAddr: 0x100005378, symSize: 0x28 }
  - { offsetInCU: 0x15CB0, offset: 0x15CB0, size: 0x8, addend: 0x0, symName: __ZNSt3__16vectorI3NetNS_9allocatorIS1_EEEaSB7v160006ERKS4_, symObjAddr: 0x18F4, symBinAddr: 0x1000053A0, symSize: 0x68 }
  - { offsetInCU: 0x15CE7, offset: 0x15CE7, size: 0x8, addend: 0x0, symName: __ZNSt3__16vectorI3PinNS_9allocatorIS1_EEEaSB7v160006ERKS4_, symObjAddr: 0x195C, symBinAddr: 0x100005408, symSize: 0x68 }
  - { offsetInCU: 0x15D1E, offset: 0x15D1E, size: 0x8, addend: 0x0, symName: __ZNSt3__16vectorI5PointNS_9allocatorIS1_EEEaSB7v160006ERKS4_, symObjAddr: 0x19C4, symBinAddr: 0x100005470, symSize: 0x68 }
  - { offsetInCU: 0x15D55, offset: 0x15D55, size: 0x8, addend: 0x0, symName: __ZNSt3__16vectorI5PointNS_9allocatorIS1_EEED1B7v160006Ev, symObjAddr: 0x1A2C, symBinAddr: 0x1000054D8, symSize: 0x2C }
  - { offsetInCU: 0x15D7F, offset: 0x15D7F, size: 0x8, addend: 0x0, symName: __ZNSt3__16vectorI3PinNS_9allocatorIS1_EEED1B7v160006Ev, symObjAddr: 0x1A58, symBinAddr: 0x100005504, symSize: 0x2C }
  - { offsetInCU: 0x15DA9, offset: 0x15DA9, size: 0x8, addend: 0x0, symName: __ZNSt3__16vectorI3NetNS_9allocatorIS1_EEED1B7v160006Ev, symObjAddr: 0x1A84, symBinAddr: 0x100005530, symSize: 0x2C }
  - { offsetInCU: 0x15DD8, offset: 0x15DD8, size: 0x8, addend: 0x0, symName: __ZNSt3__114basic_ifstreamIcNS_11char_traitsIcEEED1Ev, symObjAddr: 0x1AB0, symBinAddr: 0x10000555C, symSize: 0x40 }
  - { offsetInCU: 0x15E05, offset: 0x15E05, size: 0x8, addend: 0x0, symName: _main, symObjAddr: 0x1AF0, symBinAddr: 0x10000559C, symSize: 0x5A4 }
  - { offsetInCU: 0x15F08, offset: 0x15F08, size: 0x8, addend: 0x0, symName: __ZN7NetListC1Ev, symObjAddr: 0x2094, symBinAddr: 0x100005B40, symSize: 0x2C }
  - { offsetInCU: 0x15F39, offset: 0x15F39, size: 0x8, addend: 0x0, symName: __ZNSt3__112basic_stringIcNS_11char_traitsIcEENS_9allocatorIcEEEC1B7v160006IDnEEPKc, symObjAddr: 0x20C0, symBinAddr: 0x100005B6C, symSize: 0x34 }
  - { offsetInCU: 0x15F77, offset: 0x15F77, size: 0x8, addend: 0x0, symName: __ZNSt3__16vectorI3NetNS_9allocatorIS1_EEEixB7v160006Em, symObjAddr: 0x2140, symBinAddr: 0x100005BEC, symSize: 0x2C }
  - { offsetInCU: 0x15FAE, offset: 0x15FAE, size: 0x8, addend: 0x0, symName: __ZNSt3__16vectorI3PinNS_9allocatorIS1_EEEixB7v160006Em, symObjAddr: 0x216C, symBinAddr: 0x100005C18, symSize: 0x24 }
  - { offsetInCU: 0x15FE5, offset: 0x15FE5, size: 0x8, addend: 0x0, symName: __ZNSt3__16vectorIiNS_9allocatorIiEEEixB7v160006Em, symObjAddr: 0x2190, symBinAddr: 0x100005C3C, symSize: 0x24 }
  - { offsetInCU: 0x1601C, offset: 0x1601C, size: 0x8, addend: 0x0, symName: __ZNSt3__16vectorI5PointNS_9allocatorIS1_EEEixB7v160006Em, symObjAddr: 0x21B4, symBinAddr: 0x100005C60, symSize: 0x2C }
  - { offsetInCU: 0x16053, offset: 0x16053, size: 0x8, addend: 0x0, symName: __ZN7NetListD1Ev, symObjAddr: 0x21E0, symBinAddr: 0x100005C8C, symSize: 0x2C }
  - { offsetInCU: 0x1607F, offset: 0x1607F, size: 0x8, addend: 0x0, symName: __ZN3NetC2EiRKNSt3__112basic_stringIcNS0_11char_traitsIcEENS0_9allocatorIcEEEE, symObjAddr: 0x220C, symBinAddr: 0x100005CB8, symSize: 0x50 }
  - { offsetInCU: 0x160C5, offset: 0x160C5, size: 0x8, addend: 0x0, symName: __ZN3PinC2Eii, symObjAddr: 0x225C, symBinAddr: 0x100005D08, symSize: 0x48 }
  - { offsetInCU: 0x1610B, offset: 0x1610B, size: 0x8, addend: 0x0, symName: __ZN5PointC2Eiiiii, symObjAddr: 0x22A4, symBinAddr: 0x100005D50, symSize: 0x50 }
  - { offsetInCU: 0x1617B, offset: 0x1617B, size: 0x8, addend: 0x0, symName: __ZNSt3__119basic_istringstreamIcNS_11char_traitsIcEENS_9allocatorIcEEED2Ev, symObjAddr: 0x22F4, symBinAddr: 0x100005DA0, symSize: 0x64 }
  - { offsetInCU: 0x161B5, offset: 0x161B5, size: 0x8, addend: 0x0, symName: __ZTv0_n24_NSt3__119basic_istringstreamIcNS_11char_traitsIcEENS_9allocatorIcEEED1Ev, symObjAddr: 0x2358, symBinAddr: 0x100005E04, symSize: 0x28 }
  - { offsetInCU: 0x161D1, offset: 0x161D1, size: 0x8, addend: 0x0, symName: __ZNSt3__115basic_stringbufIcNS_11char_traitsIcEENS_9allocatorIcEEED1Ev, symObjAddr: 0x2380, symBinAddr: 0x100005E2C, symSize: 0x2C }
  - { offsetInCU: 0x161FE, offset: 0x161FE, size: 0x8, addend: 0x0, symName: __ZNSt3__115basic_stringbufIcNS_11char_traitsIcEENS_9allocatorIcEEED2Ev, symObjAddr: 0x23AC, symBinAddr: 0x100005E58, symSize: 0x48 }
  - { offsetInCU: 0x1622B, offset: 0x1622B, size: 0x8, addend: 0x0, symName: __ZN3PinD2Ev, symObjAddr: 0x23F4, symBinAddr: 0x100005EA0, symSize: 0x30 }
  - { offsetInCU: 0x16257, offset: 0x16257, size: 0x8, addend: 0x0, symName: __ZN3NetD2Ev, symObjAddr: 0x2424, symBinAddr: 0x100005ED0, symSize: 0x3C }
  - { offsetInCU: 0x16283, offset: 0x16283, size: 0x8, addend: 0x0, symName: __ZNSt3__114basic_ifstreamIcNS_11char_traitsIcEEED2Ev, symObjAddr: 0x2460, symBinAddr: 0x100005F0C, symSize: 0x64 }
  - { offsetInCU: 0x162BD, offset: 0x162BD, size: 0x8, addend: 0x0, symName: __ZTv0_n24_NSt3__114basic_ifstreamIcNS_11char_traitsIcEEED1Ev, symObjAddr: 0x24C4, symBinAddr: 0x100005F70, symSize: 0x28 }
  - { offsetInCU: 0x162D4, offset: 0x162D4, size: 0x8, addend: 0x0, symName: __ZN7NetListC2Ev, symObjAddr: 0x24EC, symBinAddr: 0x100005F98, symSize: 0x44 }
  - { offsetInCU: 0x16300, offset: 0x16300, size: 0x8, addend: 0x0, symName: __ZN7NetListD2Ev, symObjAddr: 0x2530, symBinAddr: 0x100005FDC, symSize: 0x44 }
  - { offsetInCU: 0x1632C, offset: 0x1632C, size: 0x8, addend: 0x0, symName: __ZNSt3__112basic_stringIcNS_11char_traitsIcEENS_9allocatorIcEEEC2B7v160006Ev, symObjAddr: 0x2574, symBinAddr: 0x100006020, symSize: 0x54 }
  - { offsetInCU: 0x1635B, offset: 0x1635B, size: 0x8, addend: 0x0, symName: __ZNSt3__117__compressed_pairINS_12basic_stringIcNS_11char_traitsIcEENS_9allocatorIcEEE5__repES5_EC1B7v160006INS_18__default_init_tagESA_EEOT_OT0_, symObjAddr: 0x25C8, symBinAddr: 0x100006074, symSize: 0x3C }
  - { offsetInCU: 0x163B3, offset: 0x163B3, size: 0x8, addend: 0x0, symName: __ZNSt3__112basic_stringIcNS_11char_traitsIcEENS_9allocatorIcEEE14__default_initB7v160006Ev, symObjAddr: 0x2620, symBinAddr: 0x1000060CC, symSize: 0x40 }
  - { offsetInCU: 0x163D9, offset: 0x163D9, size: 0x8, addend: 0x0, symName: __ZNSt3__117__compressed_pairINS_12basic_stringIcNS_11char_traitsIcEENS_9allocatorIcEEE5__repES5_EC2B7v160006INS_18__default_init_tagESA_EEOT_OT0_, symObjAddr: 0x2660, symBinAddr: 0x10000610C, symSize: 0x3C }
  - { offsetInCU: 0x16431, offset: 0x16431, size: 0x8, addend: 0x0, symName: __ZNSt3__122__compressed_pair_elemINS_12basic_stringIcNS_11char_traitsIcEENS_9allocatorIcEEE5__repELi0ELb0EEC2B7v160006ENS_18__default_init_tagE, symObjAddr: 0x269C, symBinAddr: 0x100006148, symSize: 0x14 }
  - { offsetInCU: 0x16465, offset: 0x16465, size: 0x8, addend: 0x0, symName: __ZNSt3__122__compressed_pair_elemINS_9allocatorIcEELi1ELb1EEC2B7v160006ENS_18__default_init_tagE, symObjAddr: 0x26B0, symBinAddr: 0x10000615C, symSize: 0x2C }
  - { offsetInCU: 0x16499, offset: 0x16499, size: 0x8, addend: 0x0, symName: __ZNSt3__19allocatorIcEC2B7v160006Ev, symObjAddr: 0x26DC, symBinAddr: 0x100006188, symSize: 0x2C }
  - { offsetInCU: 0x164C3, offset: 0x164C3, size: 0x8, addend: 0x0, symName: __ZNSt3__116__non_trivial_ifILb1ENS_9allocatorIcEEEC2B7v160006Ev, symObjAddr: 0x2708, symBinAddr: 0x1000061B4, symSize: 0x14 }
  - { offsetInCU: 0x164ED, offset: 0x164ED, size: 0x8, addend: 0x0, symName: __ZNSt3__117__compressed_pairINS_12basic_stringIcNS_11char_traitsIcEENS_9allocatorIcEEE5__repES5_E5firstB7v160006Ev, symObjAddr: 0x271C, symBinAddr: 0x1000061C8, symSize: 0x24 }
  - { offsetInCU: 0x16513, offset: 0x16513, size: 0x8, addend: 0x0, symName: __ZNSt3__122__compressed_pair_elemINS_12basic_stringIcNS_11char_traitsIcEENS_9allocatorIcEEE5__repELi0ELb0EE5__getB7v160006Ev, symObjAddr: 0x2740, symBinAddr: 0x1000061EC, symSize: 0x14 }
  - { offsetInCU: 0x16539, offset: 0x16539, size: 0x8, addend: 0x0, symName: __ZNSt3__16vectorIiNS_9allocatorIiEEEC2B7v160006Ev, symObjAddr: 0x2754, symBinAddr: 0x100006200, symSize: 0x58 }
  - { offsetInCU: 0x16568, offset: 0x16568, size: 0x8, addend: 0x0, symName: __ZNSt3__117__compressed_pairIPiNS_9allocatorIiEEEC1B7v160006IDnNS_18__default_init_tagEEEOT_OT0_, symObjAddr: 0x27AC, symBinAddr: 0x100006258, symSize: 0x3C }
  - { offsetInCU: 0x165C0, offset: 0x165C0, size: 0x8, addend: 0x0, symName: __ZNSt3__117__compressed_pairIPiNS_9allocatorIiEEEC2B7v160006IDnNS_18__default_init_tagEEEOT_OT0_, symObjAddr: 0x27F8, symBinAddr: 0x1000062A4, symSize: 0x40 }
  - { offsetInCU: 0x16618, offset: 0x16618, size: 0x8, addend: 0x0, symName: __ZNSt3__122__compressed_pair_elemIPiLi0ELb0EEC2B7v160006IDnvEEOT_, symObjAddr: 0x2838, symBinAddr: 0x1000062E4, symSize: 0x1C }
  - { offsetInCU: 0x1665A, offset: 0x1665A, size: 0x8, addend: 0x0, symName: __ZNSt3__122__compressed_pair_elemINS_9allocatorIiEELi1ELb1EEC2B7v160006ENS_18__default_init_tagE, symObjAddr: 0x2854, symBinAddr: 0x100006300, symSize: 0x2C }
  - { offsetInCU: 0x1668E, offset: 0x1668E, size: 0x8, addend: 0x0, symName: __ZNSt3__19allocatorIiEC2B7v160006Ev, symObjAddr: 0x2880, symBinAddr: 0x10000632C, symSize: 0x2C }
  - { offsetInCU: 0x166B8, offset: 0x166B8, size: 0x8, addend: 0x0, symName: __ZNSt3__116__non_trivial_ifILb1ENS_9allocatorIiEEEC2B7v160006Ev, symObjAddr: 0x28AC, symBinAddr: 0x100006358, symSize: 0x14 }
  - { offsetInCU: 0x166E2, offset: 0x166E2, size: 0x8, addend: 0x0, symName: __ZNSt3__16vectorIiNS_9allocatorIiEEED2B7v160006Ev, symObjAddr: 0x28C0, symBinAddr: 0x10000636C, symSize: 0x44 }
  - { offsetInCU: 0x1670C, offset: 0x1670C, size: 0x8, addend: 0x0, symName: __ZNSt3__16vectorIiNS_9allocatorIiEEE16__destroy_vectorC1ERS3_, symObjAddr: 0x2904, symBinAddr: 0x1000063B0, symSize: 0x34 }
  - { offsetInCU: 0x16745, offset: 0x16745, size: 0x8, addend: 0x0, symName: __ZNSt3__16vectorIiNS_9allocatorIiEEE16__destroy_vectorclB7v160006Ev, symObjAddr: 0x2938, symBinAddr: 0x1000063E4, symSize: 0x9C }
  - { offsetInCU: 0x1676B, offset: 0x1676B, size: 0x8, addend: 0x0, symName: __ZNSt3__16vectorIiNS_9allocatorIiEEE16__destroy_vectorC2ERS3_, symObjAddr: 0x29D4, symBinAddr: 0x100006480, symSize: 0x20 }
  - { offsetInCU: 0x167A4, offset: 0x167A4, size: 0x8, addend: 0x0, symName: __ZNKSt3__16vectorIiNS_9allocatorIiEEE17__annotate_deleteB7v160006Ev, symObjAddr: 0x29F4, symBinAddr: 0x1000064A0, symSize: 0xB8 }
  - { offsetInCU: 0x167CA, offset: 0x167CA, size: 0x8, addend: 0x0, symName: __ZNSt3__16vectorIiNS_9allocatorIiEEE7__clearB7v160006Ev, symObjAddr: 0x2ABC, symBinAddr: 0x100006568, symSize: 0x28 }
  - { offsetInCU: 0x167F0, offset: 0x167F0, size: 0x8, addend: 0x0, symName: __ZNSt3__116allocator_traitsINS_9allocatorIiEEE10deallocateB7v160006ERS2_Pim, symObjAddr: 0x2AE4, symBinAddr: 0x100006590, symSize: 0x34 }
  - { offsetInCU: 0x16832, offset: 0x16832, size: 0x8, addend: 0x0, symName: __ZNSt3__16vectorIiNS_9allocatorIiEEE7__allocB7v160006Ev, symObjAddr: 0x2B18, symBinAddr: 0x1000065C4, symSize: 0x28 }
  - { offsetInCU: 0x16858, offset: 0x16858, size: 0x8, addend: 0x0, symName: __ZNKSt3__16vectorIiNS_9allocatorIiEEE8capacityB7v160006Ev, symObjAddr: 0x2B40, symBinAddr: 0x1000065EC, symSize: 0x40 }
  - { offsetInCU: 0x1687E, offset: 0x1687E, size: 0x8, addend: 0x0, symName: __ZNKSt3__16vectorIiNS_9allocatorIiEEE31__annotate_contiguous_containerB7v160006EPKvS5_S5_S5_, symObjAddr: 0x2B80, symBinAddr: 0x10000662C, symSize: 0x20 }
  - { offsetInCU: 0x168D0, offset: 0x168D0, size: 0x8, addend: 0x0, symName: __ZNKSt3__16vectorIiNS_9allocatorIiEEE4dataB7v160006Ev, symObjAddr: 0x2BA0, symBinAddr: 0x10000664C, symSize: 0x28 }
  - { offsetInCU: 0x168F6, offset: 0x168F6, size: 0x8, addend: 0x0, symName: __ZNSt3__16vectorIiNS_9allocatorIiEEE22__base_destruct_at_endB7v160006EPi, symObjAddr: 0x2BDC, symBinAddr: 0x100006688, symSize: 0x8C }
  - { offsetInCU: 0x1693A, offset: 0x1693A, size: 0x8, addend: 0x0, symName: __ZNSt3__116allocator_traitsINS_9allocatorIiEEE7destroyB7v160006IivEEvRS2_PT_, symObjAddr: 0x2C68, symBinAddr: 0x100006714, symSize: 0x2C }
  - { offsetInCU: 0x16977, offset: 0x16977, size: 0x8, addend: 0x0, symName: __ZNSt3__19allocatorIiE7destroyB7v160006EPi, symObjAddr: 0x2C94, symBinAddr: 0x100006740, symSize: 0x14 }
  - { offsetInCU: 0x169AB, offset: 0x169AB, size: 0x8, addend: 0x0, symName: __ZNSt3__19allocatorIiE10deallocateB7v160006EPim, symObjAddr: 0x2CA8, symBinAddr: 0x100006754, symSize: 0x40 }
  - { offsetInCU: 0x169ED, offset: 0x169ED, size: 0x8, addend: 0x0, symName: __ZNSt3__117__compressed_pairIPiNS_9allocatorIiEEE6secondB7v160006Ev, symObjAddr: 0x2D64, symBinAddr: 0x100006810, symSize: 0x24 }
  - { offsetInCU: 0x16A13, offset: 0x16A13, size: 0x8, addend: 0x0, symName: __ZNSt3__122__compressed_pair_elemINS_9allocatorIiEELi1ELb1EE5__getB7v160006Ev, symObjAddr: 0x2D88, symBinAddr: 0x100006834, symSize: 0x14 }
  - { offsetInCU: 0x16A39, offset: 0x16A39, size: 0x8, addend: 0x0, symName: __ZNKSt3__16vectorIiNS_9allocatorIiEEE9__end_capB7v160006Ev, symObjAddr: 0x2D9C, symBinAddr: 0x100006848, symSize: 0x28 }
  - { offsetInCU: 0x16A5F, offset: 0x16A5F, size: 0x8, addend: 0x0, symName: __ZNKSt3__117__compressed_pairIPiNS_9allocatorIiEEE5firstB7v160006Ev, symObjAddr: 0x2DC4, symBinAddr: 0x100006870, symSize: 0x24 }
  - { offsetInCU: 0x16A85, offset: 0x16A85, size: 0x8, addend: 0x0, symName: __ZNKSt3__122__compressed_pair_elemIPiLi0ELb0EE5__getB7v160006Ev, symObjAddr: 0x2DE8, symBinAddr: 0x100006894, symSize: 0x14 }
  - { offsetInCU: 0x16AAB, offset: 0x16AAB, size: 0x8, addend: 0x0, symName: __ZNSt3__16vectorI3NetNS_9allocatorIS1_EEEC2B7v160006Ev, symObjAddr: 0x2DFC, symBinAddr: 0x1000068A8, symSize: 0x58 }
  - { offsetInCU: 0x16AD5, offset: 0x16AD5, size: 0x8, addend: 0x0, symName: __ZNSt3__117__compressed_pairIP3NetNS_9allocatorIS1_EEEC1B7v160006IDnNS_18__default_init_tagEEEOT_OT0_, symObjAddr: 0x2E54, symBinAddr: 0x100006900, symSize: 0x3C }
  - { offsetInCU: 0x16B2D, offset: 0x16B2D, size: 0x8, addend: 0x0, symName: __ZNSt3__117__compressed_pairIP3NetNS_9allocatorIS1_EEEC2B7v160006IDnNS_18__default_init_tagEEEOT_OT0_, symObjAddr: 0x2EA0, symBinAddr: 0x10000694C, symSize: 0x40 }
  - { offsetInCU: 0x16B85, offset: 0x16B85, size: 0x8, addend: 0x0, symName: __ZNSt3__122__compressed_pair_elemIP3NetLi0ELb0EEC2B7v160006IDnvEEOT_, symObjAddr: 0x2EE0, symBinAddr: 0x10000698C, symSize: 0x1C }
  - { offsetInCU: 0x16BC7, offset: 0x16BC7, size: 0x8, addend: 0x0, symName: __ZNSt3__122__compressed_pair_elemINS_9allocatorI3NetEELi1ELb1EEC2B7v160006ENS_18__default_init_tagE, symObjAddr: 0x2EFC, symBinAddr: 0x1000069A8, symSize: 0x2C }
  - { offsetInCU: 0x16BFB, offset: 0x16BFB, size: 0x8, addend: 0x0, symName: __ZNSt3__19allocatorI3NetEC2B7v160006Ev, symObjAddr: 0x2F28, symBinAddr: 0x1000069D4, symSize: 0x2C }
  - { offsetInCU: 0x16C25, offset: 0x16C25, size: 0x8, addend: 0x0, symName: __ZNSt3__116__non_trivial_ifILb1ENS_9allocatorI3NetEEEC2B7v160006Ev, symObjAddr: 0x2F54, symBinAddr: 0x100006A00, symSize: 0x14 }
  - { offsetInCU: 0x16C4F, offset: 0x16C4F, size: 0x8, addend: 0x0, symName: __ZNSt3__16vectorI3PinNS_9allocatorIS1_EEEC2B7v160006Ev, symObjAddr: 0x2F68, symBinAddr: 0x100006A14, symSize: 0x58 }
  - { offsetInCU: 0x16C79, offset: 0x16C79, size: 0x8, addend: 0x0, symName: __ZNSt3__117__compressed_pairIP3PinNS_9allocatorIS1_EEEC1B7v160006IDnNS_18__default_init_tagEEEOT_OT0_, symObjAddr: 0x2FC0, symBinAddr: 0x100006A6C, symSize: 0x3C }
  - { offsetInCU: 0x16CD1, offset: 0x16CD1, size: 0x8, addend: 0x0, symName: __ZNSt3__117__compressed_pairIP3PinNS_9allocatorIS1_EEEC2B7v160006IDnNS_18__default_init_tagEEEOT_OT0_, symObjAddr: 0x300C, symBinAddr: 0x100006AB8, symSize: 0x40 }
  - { offsetInCU: 0x16D29, offset: 0x16D29, size: 0x8, addend: 0x0, symName: __ZNSt3__122__compressed_pair_elemIP3PinLi0ELb0EEC2B7v160006IDnvEEOT_, symObjAddr: 0x304C, symBinAddr: 0x100006AF8, symSize: 0x1C }
  - { offsetInCU: 0x16D6B, offset: 0x16D6B, size: 0x8, addend: 0x0, symName: __ZNSt3__122__compressed_pair_elemINS_9allocatorI3PinEELi1ELb1EEC2B7v160006ENS_18__default_init_tagE, symObjAddr: 0x3068, symBinAddr: 0x100006B14, symSize: 0x2C }
  - { offsetInCU: 0x16D9F, offset: 0x16D9F, size: 0x8, addend: 0x0, symName: __ZNSt3__19allocatorI3PinEC2B7v160006Ev, symObjAddr: 0x3094, symBinAddr: 0x100006B40, symSize: 0x2C }
  - { offsetInCU: 0x16DC9, offset: 0x16DC9, size: 0x8, addend: 0x0, symName: __ZNSt3__116__non_trivial_ifILb1ENS_9allocatorI3PinEEEC2B7v160006Ev, symObjAddr: 0x30C0, symBinAddr: 0x100006B6C, symSize: 0x14 }
  - { offsetInCU: 0x16DF3, offset: 0x16DF3, size: 0x8, addend: 0x0, symName: __ZNSt3__16vectorI5PointNS_9allocatorIS1_EEEC2B7v160006Ev, symObjAddr: 0x30D4, symBinAddr: 0x100006B80, symSize: 0x58 }
  - { offsetInCU: 0x16E1D, offset: 0x16E1D, size: 0x8, addend: 0x0, symName: __ZNSt3__117__compressed_pairIP5PointNS_9allocatorIS1_EEEC1B7v160006IDnNS_18__default_init_tagEEEOT_OT0_, symObjAddr: 0x312C, symBinAddr: 0x100006BD8, symSize: 0x3C }
  - { offsetInCU: 0x16E75, offset: 0x16E75, size: 0x8, addend: 0x0, symName: __ZNSt3__117__compressed_pairIP5PointNS_9allocatorIS1_EEEC2B7v160006IDnNS_18__default_init_tagEEEOT_OT0_, symObjAddr: 0x3178, symBinAddr: 0x100006C24, symSize: 0x40 }
  - { offsetInCU: 0x16ECD, offset: 0x16ECD, size: 0x8, addend: 0x0, symName: __ZNSt3__122__compressed_pair_elemIP5PointLi0ELb0EEC2B7v160006IDnvEEOT_, symObjAddr: 0x31B8, symBinAddr: 0x100006C64, symSize: 0x1C }
  - { offsetInCU: 0x16F0F, offset: 0x16F0F, size: 0x8, addend: 0x0, symName: __ZNSt3__122__compressed_pair_elemINS_9allocatorI5PointEELi1ELb1EEC2B7v160006ENS_18__default_init_tagE, symObjAddr: 0x31D4, symBinAddr: 0x100006C80, symSize: 0x2C }
  - { offsetInCU: 0x16F43, offset: 0x16F43, size: 0x8, addend: 0x0, symName: __ZNSt3__19allocatorI5PointEC2B7v160006Ev, symObjAddr: 0x3200, symBinAddr: 0x100006CAC, symSize: 0x2C }
  - { offsetInCU: 0x16F6D, offset: 0x16F6D, size: 0x8, addend: 0x0, symName: __ZNSt3__116__non_trivial_ifILb1ENS_9allocatorI5PointEEEC2B7v160006Ev, symObjAddr: 0x322C, symBinAddr: 0x100006CD8, symSize: 0x14 }
  - { offsetInCU: 0x16F97, offset: 0x16F97, size: 0x8, addend: 0x0, symName: __ZNSt3__16vectorI3NetNS_9allocatorIS1_EEED2B7v160006Ev, symObjAddr: 0x3240, symBinAddr: 0x100006CEC, symSize: 0x44 }
  - { offsetInCU: 0x16FC1, offset: 0x16FC1, size: 0x8, addend: 0x0, symName: __ZNSt3__16vectorI3NetNS_9allocatorIS1_EEE16__destroy_vectorC1ERS4_, symObjAddr: 0x3284, symBinAddr: 0x100006D30, symSize: 0x34 }
  - { offsetInCU: 0x16FFA, offset: 0x16FFA, size: 0x8, addend: 0x0, symName: __ZNSt3__16vectorI3NetNS_9allocatorIS1_EEE16__destroy_vectorclB7v160006Ev, symObjAddr: 0x32B8, symBinAddr: 0x100006D64, symSize: 0x9C }
  - { offsetInCU: 0x17020, offset: 0x17020, size: 0x8, addend: 0x0, symName: __ZNSt3__16vectorI3NetNS_9allocatorIS1_EEE16__destroy_vectorC2ERS4_, symObjAddr: 0x3354, symBinAddr: 0x100006E00, symSize: 0x20 }
  - { offsetInCU: 0x17059, offset: 0x17059, size: 0x8, addend: 0x0, symName: __ZNKSt3__16vectorI3NetNS_9allocatorIS1_EEE17__annotate_deleteB7v160006Ev, symObjAddr: 0x3374, symBinAddr: 0x100006E20, symSize: 0xD4 }
  - { offsetInCU: 0x1707F, offset: 0x1707F, size: 0x8, addend: 0x0, symName: __ZNSt3__16vectorI3NetNS_9allocatorIS1_EEE7__clearB7v160006Ev, symObjAddr: 0x3458, symBinAddr: 0x100006F04, symSize: 0x28 }
  - { offsetInCU: 0x170A5, offset: 0x170A5, size: 0x8, addend: 0x0, symName: __ZNSt3__116allocator_traitsINS_9allocatorI3NetEEE10deallocateB7v160006ERS3_PS2_m, symObjAddr: 0x3480, symBinAddr: 0x100006F2C, symSize: 0x34 }
  - { offsetInCU: 0x170E7, offset: 0x170E7, size: 0x8, addend: 0x0, symName: __ZNSt3__16vectorI3NetNS_9allocatorIS1_EEE7__allocB7v160006Ev, symObjAddr: 0x34B4, symBinAddr: 0x100006F60, symSize: 0x28 }
  - { offsetInCU: 0x1710D, offset: 0x1710D, size: 0x8, addend: 0x0, symName: __ZNKSt3__16vectorI3NetNS_9allocatorIS1_EEE8capacityB7v160006Ev, symObjAddr: 0x34DC, symBinAddr: 0x100006F88, symSize: 0x40 }
  - { offsetInCU: 0x17133, offset: 0x17133, size: 0x8, addend: 0x0, symName: __ZNKSt3__16vectorI3NetNS_9allocatorIS1_EEE31__annotate_contiguous_containerB7v160006EPKvS6_S6_S6_, symObjAddr: 0x351C, symBinAddr: 0x100006FC8, symSize: 0x20 }
  - { offsetInCU: 0x17185, offset: 0x17185, size: 0x8, addend: 0x0, symName: __ZNKSt3__16vectorI3NetNS_9allocatorIS1_EEE4dataB7v160006Ev, symObjAddr: 0x353C, symBinAddr: 0x100006FE8, symSize: 0x28 }
  - { offsetInCU: 0x171AB, offset: 0x171AB, size: 0x8, addend: 0x0, symName: __ZNSt3__16vectorI3NetNS_9allocatorIS1_EEE22__base_destruct_at_endB7v160006EPS1_, symObjAddr: 0x3578, symBinAddr: 0x100007024, symSize: 0x8C }
  - { offsetInCU: 0x171EF, offset: 0x171EF, size: 0x8, addend: 0x0, symName: __ZNSt3__116allocator_traitsINS_9allocatorI3NetEEE7destroyB7v160006IS2_vEEvRS3_PT_, symObjAddr: 0x3604, symBinAddr: 0x1000070B0, symSize: 0x2C }
  - { offsetInCU: 0x1722C, offset: 0x1722C, size: 0x8, addend: 0x0, symName: __ZNSt3__19allocatorI3NetE7destroyB7v160006EPS1_, symObjAddr: 0x3630, symBinAddr: 0x1000070DC, symSize: 0x28 }
  - { offsetInCU: 0x17260, offset: 0x17260, size: 0x8, addend: 0x0, symName: __ZNSt3__19allocatorI3NetE10deallocateB7v160006EPS1_m, symObjAddr: 0x3658, symBinAddr: 0x100007104, symSize: 0x44 }
  - { offsetInCU: 0x172A2, offset: 0x172A2, size: 0x8, addend: 0x0, symName: __ZNSt3__117__compressed_pairIP3NetNS_9allocatorIS1_EEE6secondB7v160006Ev, symObjAddr: 0x369C, symBinAddr: 0x100007148, symSize: 0x24 }
  - { offsetInCU: 0x172C8, offset: 0x172C8, size: 0x8, addend: 0x0, symName: __ZNSt3__122__compressed_pair_elemINS_9allocatorI3NetEELi1ELb1EE5__getB7v160006Ev, symObjAddr: 0x36C0, symBinAddr: 0x10000716C, symSize: 0x14 }
  - { offsetInCU: 0x172EE, offset: 0x172EE, size: 0x8, addend: 0x0, symName: __ZNKSt3__16vectorI3NetNS_9allocatorIS1_EEE9__end_capB7v160006Ev, symObjAddr: 0x36D4, symBinAddr: 0x100007180, symSize: 0x28 }
  - { offsetInCU: 0x17314, offset: 0x17314, size: 0x8, addend: 0x0, symName: __ZNKSt3__117__compressed_pairIP3NetNS_9allocatorIS1_EEE5firstB7v160006Ev, symObjAddr: 0x36FC, symBinAddr: 0x1000071A8, symSize: 0x24 }
  - { offsetInCU: 0x1733A, offset: 0x1733A, size: 0x8, addend: 0x0, symName: __ZNKSt3__122__compressed_pair_elemIP3NetLi0ELb0EE5__getB7v160006Ev, symObjAddr: 0x3720, symBinAddr: 0x1000071CC, symSize: 0x14 }
  - { offsetInCU: 0x17360, offset: 0x17360, size: 0x8, addend: 0x0, symName: __ZNSt3__16vectorI3PinNS_9allocatorIS1_EEED2B7v160006Ev, symObjAddr: 0x3734, symBinAddr: 0x1000071E0, symSize: 0x44 }
  - { offsetInCU: 0x1738A, offset: 0x1738A, size: 0x8, addend: 0x0, symName: __ZNSt3__16vectorI3PinNS_9allocatorIS1_EEE16__destroy_vectorC1ERS4_, symObjAddr: 0x3778, symBinAddr: 0x100007224, symSize: 0x34 }
  - { offsetInCU: 0x173C3, offset: 0x173C3, size: 0x8, addend: 0x0, symName: __ZNSt3__16vectorI3PinNS_9allocatorIS1_EEE16__destroy_vectorclB7v160006Ev, symObjAddr: 0x37AC, symBinAddr: 0x100007258, symSize: 0x9C }
  - { offsetInCU: 0x173E9, offset: 0x173E9, size: 0x8, addend: 0x0, symName: __ZNSt3__16vectorI3PinNS_9allocatorIS1_EEE16__destroy_vectorC2ERS4_, symObjAddr: 0x3848, symBinAddr: 0x1000072F4, symSize: 0x20 }
  - { offsetInCU: 0x17422, offset: 0x17422, size: 0x8, addend: 0x0, symName: __ZNKSt3__16vectorI3PinNS_9allocatorIS1_EEE17__annotate_deleteB7v160006Ev, symObjAddr: 0x3868, symBinAddr: 0x100007314, symSize: 0xB8 }
  - { offsetInCU: 0x17448, offset: 0x17448, size: 0x8, addend: 0x0, symName: __ZNSt3__16vectorI3PinNS_9allocatorIS1_EEE7__clearB7v160006Ev, symObjAddr: 0x3930, symBinAddr: 0x1000073DC, symSize: 0x28 }
  - { offsetInCU: 0x1746E, offset: 0x1746E, size: 0x8, addend: 0x0, symName: __ZNSt3__116allocator_traitsINS_9allocatorI3PinEEE10deallocateB7v160006ERS3_PS2_m, symObjAddr: 0x3958, symBinAddr: 0x100007404, symSize: 0x34 }
  - { offsetInCU: 0x174B0, offset: 0x174B0, size: 0x8, addend: 0x0, symName: __ZNSt3__16vectorI3PinNS_9allocatorIS1_EEE7__allocB7v160006Ev, symObjAddr: 0x398C, symBinAddr: 0x100007438, symSize: 0x28 }
  - { offsetInCU: 0x174D6, offset: 0x174D6, size: 0x8, addend: 0x0, symName: __ZNKSt3__16vectorI3PinNS_9allocatorIS1_EEE8capacityB7v160006Ev, symObjAddr: 0x39B4, symBinAddr: 0x100007460, symSize: 0x40 }
  - { offsetInCU: 0x174FC, offset: 0x174FC, size: 0x8, addend: 0x0, symName: __ZNKSt3__16vectorI3PinNS_9allocatorIS1_EEE31__annotate_contiguous_containerB7v160006EPKvS6_S6_S6_, symObjAddr: 0x39F4, symBinAddr: 0x1000074A0, symSize: 0x20 }
  - { offsetInCU: 0x1754E, offset: 0x1754E, size: 0x8, addend: 0x0, symName: __ZNKSt3__16vectorI3PinNS_9allocatorIS1_EEE4dataB7v160006Ev, symObjAddr: 0x3A14, symBinAddr: 0x1000074C0, symSize: 0x28 }
  - { offsetInCU: 0x17574, offset: 0x17574, size: 0x8, addend: 0x0, symName: __ZNSt3__16vectorI3PinNS_9allocatorIS1_EEE22__base_destruct_at_endB7v160006EPS1_, symObjAddr: 0x3A50, symBinAddr: 0x1000074FC, symSize: 0x8C }
  - { offsetInCU: 0x175B8, offset: 0x175B8, size: 0x8, addend: 0x0, symName: __ZNSt3__116allocator_traitsINS_9allocatorI3PinEEE7destroyB7v160006IS2_vEEvRS3_PT_, symObjAddr: 0x3ADC, symBinAddr: 0x100007588, symSize: 0x2C }
  - { offsetInCU: 0x175F5, offset: 0x175F5, size: 0x8, addend: 0x0, symName: __ZNSt3__19allocatorI3PinE7destroyB7v160006EPS1_, symObjAddr: 0x3B08, symBinAddr: 0x1000075B4, symSize: 0x28 }
  - { offsetInCU: 0x17629, offset: 0x17629, size: 0x8, addend: 0x0, symName: __ZNSt3__19allocatorI3PinE10deallocateB7v160006EPS1_m, symObjAddr: 0x3B30, symBinAddr: 0x1000075DC, symSize: 0x40 }
  - { offsetInCU: 0x1766B, offset: 0x1766B, size: 0x8, addend: 0x0, symName: __ZNSt3__117__compressed_pairIP3PinNS_9allocatorIS1_EEE6secondB7v160006Ev, symObjAddr: 0x3B70, symBinAddr: 0x10000761C, symSize: 0x24 }
  - { offsetInCU: 0x17691, offset: 0x17691, size: 0x8, addend: 0x0, symName: __ZNSt3__122__compressed_pair_elemINS_9allocatorI3PinEELi1ELb1EE5__getB7v160006Ev, symObjAddr: 0x3B94, symBinAddr: 0x100007640, symSize: 0x14 }
  - { offsetInCU: 0x176B7, offset: 0x176B7, size: 0x8, addend: 0x0, symName: __ZNKSt3__16vectorI3PinNS_9allocatorIS1_EEE9__end_capB7v160006Ev, symObjAddr: 0x3BA8, symBinAddr: 0x100007654, symSize: 0x28 }
  - { offsetInCU: 0x176DD, offset: 0x176DD, size: 0x8, addend: 0x0, symName: __ZNKSt3__117__compressed_pairIP3PinNS_9allocatorIS1_EEE5firstB7v160006Ev, symObjAddr: 0x3BD0, symBinAddr: 0x10000767C, symSize: 0x24 }
  - { offsetInCU: 0x17703, offset: 0x17703, size: 0x8, addend: 0x0, symName: __ZNKSt3__122__compressed_pair_elemIP3PinLi0ELb0EE5__getB7v160006Ev, symObjAddr: 0x3BF4, symBinAddr: 0x1000076A0, symSize: 0x14 }
  - { offsetInCU: 0x17729, offset: 0x17729, size: 0x8, addend: 0x0, symName: __ZNSt3__16vectorI5PointNS_9allocatorIS1_EEED2B7v160006Ev, symObjAddr: 0x3C08, symBinAddr: 0x1000076B4, symSize: 0x44 }
  - { offsetInCU: 0x17753, offset: 0x17753, size: 0x8, addend: 0x0, symName: __ZNSt3__16vectorI5PointNS_9allocatorIS1_EEE16__destroy_vectorC1ERS4_, symObjAddr: 0x3C4C, symBinAddr: 0x1000076F8, symSize: 0x34 }
  - { offsetInCU: 0x1778C, offset: 0x1778C, size: 0x8, addend: 0x0, symName: __ZNSt3__16vectorI5PointNS_9allocatorIS1_EEE16__destroy_vectorclB7v160006Ev, symObjAddr: 0x3C80, symBinAddr: 0x10000772C, symSize: 0x9C }
  - { offsetInCU: 0x177B2, offset: 0x177B2, size: 0x8, addend: 0x0, symName: __ZNSt3__16vectorI5PointNS_9allocatorIS1_EEE16__destroy_vectorC2ERS4_, symObjAddr: 0x3D1C, symBinAddr: 0x1000077C8, symSize: 0x20 }
  - { offsetInCU: 0x177EB, offset: 0x177EB, size: 0x8, addend: 0x0, symName: __ZNKSt3__16vectorI5PointNS_9allocatorIS1_EEE17__annotate_deleteB7v160006Ev, symObjAddr: 0x3D3C, symBinAddr: 0x1000077E8, symSize: 0xD4 }
  - { offsetInCU: 0x17811, offset: 0x17811, size: 0x8, addend: 0x0, symName: __ZNSt3__16vectorI5PointNS_9allocatorIS1_EEE7__clearB7v160006Ev, symObjAddr: 0x3E20, symBinAddr: 0x1000078CC, symSize: 0x28 }
  - { offsetInCU: 0x17837, offset: 0x17837, size: 0x8, addend: 0x0, symName: __ZNSt3__116allocator_traitsINS_9allocatorI5PointEEE10deallocateB7v160006ERS3_PS2_m, symObjAddr: 0x3E48, symBinAddr: 0x1000078F4, symSize: 0x34 }
  - { offsetInCU: 0x17879, offset: 0x17879, size: 0x8, addend: 0x0, symName: __ZNSt3__16vectorI5PointNS_9allocatorIS1_EEE7__allocB7v160006Ev, symObjAddr: 0x3E7C, symBinAddr: 0x100007928, symSize: 0x28 }
  - { offsetInCU: 0x1789F, offset: 0x1789F, size: 0x8, addend: 0x0, symName: __ZNKSt3__16vectorI5PointNS_9allocatorIS1_EEE8capacityB7v160006Ev, symObjAddr: 0x3EA4, symBinAddr: 0x100007950, symSize: 0x40 }
  - { offsetInCU: 0x178C5, offset: 0x178C5, size: 0x8, addend: 0x0, symName: __ZNKSt3__16vectorI5PointNS_9allocatorIS1_EEE31__annotate_contiguous_containerB7v160006EPKvS6_S6_S6_, symObjAddr: 0x3EE4, symBinAddr: 0x100007990, symSize: 0x20 }
  - { offsetInCU: 0x17917, offset: 0x17917, size: 0x8, addend: 0x0, symName: __ZNKSt3__16vectorI5PointNS_9allocatorIS1_EEE4dataB7v160006Ev, symObjAddr: 0x3F04, symBinAddr: 0x1000079B0, symSize: 0x28 }
  - { offsetInCU: 0x1793D, offset: 0x1793D, size: 0x8, addend: 0x0, symName: __ZNSt3__16vectorI5PointNS_9allocatorIS1_EEE22__base_destruct_at_endB7v160006EPS1_, symObjAddr: 0x3F40, symBinAddr: 0x1000079EC, symSize: 0x8C }
  - { offsetInCU: 0x17981, offset: 0x17981, size: 0x8, addend: 0x0, symName: __ZNSt3__116allocator_traitsINS_9allocatorI5PointEEE7destroyB7v160006IS2_vEEvRS3_PT_, symObjAddr: 0x3FCC, symBinAddr: 0x100007A78, symSize: 0x2C }
  - { offsetInCU: 0x179BE, offset: 0x179BE, size: 0x8, addend: 0x0, symName: __ZNSt3__19allocatorI5PointE7destroyB7v160006EPS1_, symObjAddr: 0x3FF8, symBinAddr: 0x100007AA4, symSize: 0x14 }
  - { offsetInCU: 0x179F2, offset: 0x179F2, size: 0x8, addend: 0x0, symName: __ZNSt3__19allocatorI5PointE10deallocateB7v160006EPS1_m, symObjAddr: 0x400C, symBinAddr: 0x100007AB8, symSize: 0x44 }
  - { offsetInCU: 0x17A34, offset: 0x17A34, size: 0x8, addend: 0x0, symName: __ZNSt3__117__compressed_pairIP5PointNS_9allocatorIS1_EEE6secondB7v160006Ev, symObjAddr: 0x4050, symBinAddr: 0x100007AFC, symSize: 0x24 }
  - { offsetInCU: 0x17A5A, offset: 0x17A5A, size: 0x8, addend: 0x0, symName: __ZNSt3__122__compressed_pair_elemINS_9allocatorI5PointEELi1ELb1EE5__getB7v160006Ev, symObjAddr: 0x4074, symBinAddr: 0x100007B20, symSize: 0x14 }
  - { offsetInCU: 0x17A80, offset: 0x17A80, size: 0x8, addend: 0x0, symName: __ZNKSt3__16vectorI5PointNS_9allocatorIS1_EEE9__end_capB7v160006Ev, symObjAddr: 0x4088, symBinAddr: 0x100007B34, symSize: 0x28 }
  - { offsetInCU: 0x17AA6, offset: 0x17AA6, size: 0x8, addend: 0x0, symName: __ZNKSt3__117__compressed_pairIP5PointNS_9allocatorIS1_EEE5firstB7v160006Ev, symObjAddr: 0x40B0, symBinAddr: 0x100007B5C, symSize: 0x24 }
  - { offsetInCU: 0x17ACC, offset: 0x17ACC, size: 0x8, addend: 0x0, symName: __ZNKSt3__122__compressed_pair_elemIP5PointLi0ELb0EE5__getB7v160006Ev, symObjAddr: 0x40D4, symBinAddr: 0x100007B80, symSize: 0x14 }
  - { offsetInCU: 0x17AF2, offset: 0x17AF2, size: 0x8, addend: 0x0, symName: __ZNSt3__19basic_iosIcNS_11char_traitsIcEEEC2B7v160006Ev, symObjAddr: 0x40E8, symBinAddr: 0x100007B94, symSize: 0x44 }
  - { offsetInCU: 0x17B1C, offset: 0x17B1C, size: 0x8, addend: 0x0, symName: __ZNSt3__113basic_istreamIcNS_11char_traitsIcEEEC2B7v160006EPNS_15basic_streambufIcS2_EE, symObjAddr: 0x412C, symBinAddr: 0x100007BD8, symSize: 0x64 }
  - { offsetInCU: 0x17B61, offset: 0x17B61, size: 0x8, addend: 0x0, symName: __ZNSt3__113basic_filebufIcNS_11char_traitsIcEEE4openERKNS_12basic_stringIcS2_NS_9allocatorIcEEEEj, symObjAddr: 0x4190, symBinAddr: 0x100007C3C, symSize: 0x44 }
  - { offsetInCU: 0x17BA5, offset: 0x17BA5, size: 0x8, addend: 0x0, symName: __ZNSt3__19basic_iosIcNS_11char_traitsIcEEE8setstateB7v160006Ej, symObjAddr: 0x41D4, symBinAddr: 0x100007C80, symSize: 0x2C }
  - { offsetInCU: 0x17BDA, offset: 0x17BDA, size: 0x8, addend: 0x0, symName: __ZNSt3__18ios_baseC2B7v160006Ev, symObjAddr: 0x4200, symBinAddr: 0x100007CAC, symSize: 0x24 }
  - { offsetInCU: 0x17C04, offset: 0x17C04, size: 0x8, addend: 0x0, symName: __ZNSt3__19basic_iosIcNS_11char_traitsIcEEE4initB7v160006EPNS_15basic_streambufIcS2_EE, symObjAddr: 0x4224, symBinAddr: 0x100007CD0, symSize: 0x44 }
  - { offsetInCU: 0x17C3B, offset: 0x17C3B, size: 0x8, addend: 0x0, symName: __ZNSt3__111char_traitsIcE3eofEv, symObjAddr: 0x4268, symBinAddr: 0x100007D14, symSize: 0x8 }
  - { offsetInCU: 0x17C4F, offset: 0x17C4F, size: 0x8, addend: 0x0, symName: __ZNKSt3__112basic_stringIcNS_11char_traitsIcEENS_9allocatorIcEEE5c_strB7v160006Ev, symObjAddr: 0x4270, symBinAddr: 0x100007D1C, symSize: 0x24 }
  - { offsetInCU: 0x17C75, offset: 0x17C75, size: 0x8, addend: 0x0, symName: __ZNKSt3__112basic_stringIcNS_11char_traitsIcEENS_9allocatorIcEEE4dataB7v160006Ev, symObjAddr: 0x4294, symBinAddr: 0x100007D40, symSize: 0x28 }
  - { offsetInCU: 0x17C9B, offset: 0x17C9B, size: 0x8, addend: 0x0, symName: __ZNKSt3__112basic_stringIcNS_11char_traitsIcEENS_9allocatorIcEEE13__get_pointerB7v160006Ev, symObjAddr: 0x42D0, symBinAddr: 0x100007D7C, symSize: 0x54 }
  - { offsetInCU: 0x17CC1, offset: 0x17CC1, size: 0x8, addend: 0x0, symName: __ZNKSt3__112basic_stringIcNS_11char_traitsIcEENS_9allocatorIcEEE9__is_longB7v160006Ev, symObjAddr: 0x4324, symBinAddr: 0x100007DD0, symSize: 0x38 }
  - { offsetInCU: 0x17CE7, offset: 0x17CE7, size: 0x8, addend: 0x0, symName: __ZNKSt3__112basic_stringIcNS_11char_traitsIcEENS_9allocatorIcEEE18__get_long_pointerB7v160006Ev, symObjAddr: 0x435C, symBinAddr: 0x100007E08, symSize: 0x28 }
  - { offsetInCU: 0x17D0D, offset: 0x17D0D, size: 0x8, addend: 0x0, symName: __ZNKSt3__112basic_stringIcNS_11char_traitsIcEENS_9allocatorIcEEE19__get_short_pointerB7v160006Ev, symObjAddr: 0x4384, symBinAddr: 0x100007E30, symSize: 0x28 }
  - { offsetInCU: 0x17D33, offset: 0x17D33, size: 0x8, addend: 0x0, symName: __ZNKSt3__117__compressed_pairINS_12basic_stringIcNS_11char_traitsIcEENS_9allocatorIcEEE5__repES5_E5firstB7v160006Ev, symObjAddr: 0x43AC, symBinAddr: 0x100007E58, symSize: 0x24 }
  - { offsetInCU: 0x17D59, offset: 0x17D59, size: 0x8, addend: 0x0, symName: __ZNKSt3__122__compressed_pair_elemINS_12basic_stringIcNS_11char_traitsIcEENS_9allocatorIcEEE5__repELi0ELb0EE5__getB7v160006Ev, symObjAddr: 0x43D0, symBinAddr: 0x100007E7C, symSize: 0x14 }
  - { offsetInCU: 0x17D7F, offset: 0x17D7F, size: 0x8, addend: 0x0, symName: __ZNSt3__114pointer_traitsIPKcE10pointer_toB7v160006ERS1_, symObjAddr: 0x43E4, symBinAddr: 0x100007E90, symSize: 0x14 }
  - { offsetInCU: 0x17DA2, offset: 0x17DA2, size: 0x8, addend: 0x0, symName: __ZNSt3__18ios_base8setstateB7v160006Ej, symObjAddr: 0x43F8, symBinAddr: 0x100007EA4, symSize: 0x34 }
  - { offsetInCU: 0x17DD9, offset: 0x17DD9, size: 0x8, addend: 0x0, symName: __ZNKSt3__113basic_filebufIcNS_11char_traitsIcEEE7is_openEv, symObjAddr: 0x442C, symBinAddr: 0x100007ED8, symSize: 0x24 }
  - { offsetInCU: 0x17E01, offset: 0x17E01, size: 0x8, addend: 0x0, symName: __ZNSt3__111char_traitsIcE6lengthEPKc, symObjAddr: 0x463C, symBinAddr: 0x1000080E8, symSize: 0x34 }
  - { offsetInCU: 0x17E42, offset: 0x17E42, size: 0x8, addend: 0x0, symName: __ZNKSt3__113basic_ostreamIcNS_11char_traitsIcEEE6sentrycvbB7v160006Ev, symObjAddr: 0x4670, symBinAddr: 0x10000811C, symSize: 0x1C }
  - { offsetInCU: 0x17E68, offset: 0x17E68, size: 0x8, addend: 0x0, symName: __ZNSt3__119ostreambuf_iteratorIcNS_11char_traitsIcEEEC1B7v160006ERNS_13basic_ostreamIcS2_EE, symObjAddr: 0x48CC, symBinAddr: 0x100008378, symSize: 0x34 }
  - { offsetInCU: 0x17EA0, offset: 0x17EA0, size: 0x8, addend: 0x0, symName: __ZNKSt3__18ios_base5flagsB7v160006Ev, symObjAddr: 0x4900, symBinAddr: 0x1000083AC, symSize: 0x18 }
  - { offsetInCU: 0x17EC8, offset: 0x17EC8, size: 0x8, addend: 0x0, symName: __ZNKSt3__19basic_iosIcNS_11char_traitsIcEEE4fillB7v160006Ev, symObjAddr: 0x4918, symBinAddr: 0x1000083C4, symSize: 0x64 }
  - { offsetInCU: 0x17EF0, offset: 0x17EF0, size: 0x8, addend: 0x0, symName: __ZNKSt3__119ostreambuf_iteratorIcNS_11char_traitsIcEEE6failedB7v160006Ev, symObjAddr: 0x497C, symBinAddr: 0x100008428, symSize: 0x24 }
  - { offsetInCU: 0x17F16, offset: 0x17F16, size: 0x8, addend: 0x0, symName: __ZNKSt3__18ios_base5widthB7v160006Ev, symObjAddr: 0x49A0, symBinAddr: 0x10000844C, symSize: 0x18 }
  - { offsetInCU: 0x17F3E, offset: 0x17F3E, size: 0x8, addend: 0x0, symName: __ZNSt3__115basic_streambufIcNS_11char_traitsIcEEE5sputnB7v160006EPKcl, symObjAddr: 0x49B8, symBinAddr: 0x100008464, symSize: 0x3C }
  - { offsetInCU: 0x17F80, offset: 0x17F80, size: 0x8, addend: 0x0, symName: __ZNSt3__112basic_stringIcNS_11char_traitsIcEENS_9allocatorIcEEEC1B7v160006Emc, symObjAddr: 0x49F4, symBinAddr: 0x1000084A0, symSize: 0x3C }
  - { offsetInCU: 0x17FC8, offset: 0x17FC8, size: 0x8, addend: 0x0, symName: __ZNSt3__18ios_base5widthB7v160006El, symObjAddr: 0x4A30, symBinAddr: 0x1000084DC, symSize: 0x2C }
  - { offsetInCU: 0x1800E, offset: 0x1800E, size: 0x8, addend: 0x0, symName: __ZNSt3__112basic_stringIcNS_11char_traitsIcEENS_9allocatorIcEEEC2B7v160006Emc, symObjAddr: 0x4A5C, symBinAddr: 0x100008508, symSize: 0x54 }
  - { offsetInCU: 0x18056, offset: 0x18056, size: 0x8, addend: 0x0, symName: __ZNSt3__119ostreambuf_iteratorIcNS_11char_traitsIcEEEC2B7v160006ERNS_13basic_ostreamIcS2_EE, symObjAddr: 0x4AB0, symBinAddr: 0x10000855C, symSize: 0x54 }
  - { offsetInCU: 0x1808E, offset: 0x1808E, size: 0x8, addend: 0x0, symName: __ZNKSt3__19basic_iosIcNS_11char_traitsIcEEE5rdbufB7v160006Ev, symObjAddr: 0x4B04, symBinAddr: 0x1000085B0, symSize: 0x24 }
  - { offsetInCU: 0x180B6, offset: 0x180B6, size: 0x8, addend: 0x0, symName: __ZNKSt3__18ios_base5rdbufB7v160006Ev, symObjAddr: 0x4B28, symBinAddr: 0x1000085D4, symSize: 0x18 }
  - { offsetInCU: 0x180DC, offset: 0x180DC, size: 0x8, addend: 0x0, symName: __ZNSt3__111char_traitsIcE11eq_int_typeEii, symObjAddr: 0x4B40, symBinAddr: 0x1000085EC, symSize: 0x28 }
  - { offsetInCU: 0x1810D, offset: 0x1810D, size: 0x8, addend: 0x0, symName: __ZNKSt3__19basic_iosIcNS_11char_traitsIcEEE5widenB7v160006Ec, symObjAddr: 0x4B68, symBinAddr: 0x100008614, symSize: 0x84 }
  - { offsetInCU: 0x18171, offset: 0x18171, size: 0x8, addend: 0x0, symName: __ZNKSt3__15ctypeIcE5widenB7v160006Ec, symObjAddr: 0x4C18, symBinAddr: 0x1000086C4, symSize: 0x38 }
  - { offsetInCU: 0x181C4, offset: 0x181C4, size: 0x8, addend: 0x0, symName: __ZNKSt3__113basic_istreamIcNS_11char_traitsIcEEE6sentrycvbB7v160006Ev, symObjAddr: 0x4EAC, symBinAddr: 0x100008958, symSize: 0x1C }
  - { offsetInCU: 0x181EA, offset: 0x181EA, size: 0x8, addend: 0x0, symName: __ZNSt3__112basic_stringIcNS_11char_traitsIcEENS_9allocatorIcEEE5clearB7v160006Ev, symObjAddr: 0x4EC8, symBinAddr: 0x100008974, symSize: 0x88 }
  - { offsetInCU: 0x18212, offset: 0x18212, size: 0x8, addend: 0x0, symName: __ZNSt3__115basic_streambufIcNS_11char_traitsIcEEE6sbumpcB7v160006Ev, symObjAddr: 0x4F50, symBinAddr: 0x1000089FC, symSize: 0x78 }
  - { offsetInCU: 0x18238, offset: 0x18238, size: 0x8, addend: 0x0, symName: __ZNSt3__111char_traitsIcE12to_char_typeEi, symObjAddr: 0x4FC8, symBinAddr: 0x100008A74, symSize: 0x18 }
  - { offsetInCU: 0x1825B, offset: 0x1825B, size: 0x8, addend: 0x0, symName: __ZNSt3__111char_traitsIcE2eqEcc, symObjAddr: 0x4FE0, symBinAddr: 0x100008A8C, symSize: 0x28 }
  - { offsetInCU: 0x1828C, offset: 0x1828C, size: 0x8, addend: 0x0, symName: __ZNKSt3__112basic_stringIcNS_11char_traitsIcEENS_9allocatorIcEEE4sizeB7v160006Ev, symObjAddr: 0x5008, symBinAddr: 0x100008AB4, symSize: 0x54 }
  - { offsetInCU: 0x182B2, offset: 0x182B2, size: 0x8, addend: 0x0, symName: __ZNKSt3__112basic_stringIcNS_11char_traitsIcEENS_9allocatorIcEEE8max_sizeB7v160006Ev, symObjAddr: 0x505C, symBinAddr: 0x100008B08, symSize: 0xAC }
  - { offsetInCU: 0x18304, offset: 0x18304, size: 0x8, addend: 0x0, symName: __ZNSt3__18ios_base18__setstate_nothrowB7v160006Ej, symObjAddr: 0x5108, symBinAddr: 0x100008BB4, symSize: 0x64 }
  - { offsetInCU: 0x18339, offset: 0x18339, size: 0x8, addend: 0x0, symName: __ZNKSt3__19basic_iosIcNS_11char_traitsIcEEE10exceptionsB7v160006Ev, symObjAddr: 0x516C, symBinAddr: 0x100008C18, symSize: 0x24 }
  - { offsetInCU: 0x1835F, offset: 0x1835F, size: 0x8, addend: 0x0, symName: __ZNSt3__111char_traitsIcE6assignERcRKc, symObjAddr: 0x51A0, symBinAddr: 0x100008C4C, symSize: 0x24 }
  - { offsetInCU: 0x18390, offset: 0x18390, size: 0x8, addend: 0x0, symName: __ZNSt3__112basic_stringIcNS_11char_traitsIcEENS_9allocatorIcEEE18__get_long_pointerB7v160006Ev, symObjAddr: 0x51C4, symBinAddr: 0x100008C70, symSize: 0x28 }
  - { offsetInCU: 0x183B6, offset: 0x183B6, size: 0x8, addend: 0x0, symName: __ZNSt3__112basic_stringIcNS_11char_traitsIcEENS_9allocatorIcEEE15__set_long_sizeB7v160006Em, symObjAddr: 0x51EC, symBinAddr: 0x100008C98, symSize: 0x38 }
  - { offsetInCU: 0x183EB, offset: 0x183EB, size: 0x8, addend: 0x0, symName: __ZNSt3__112basic_stringIcNS_11char_traitsIcEENS_9allocatorIcEEE19__get_short_pointerB7v160006Ev, symObjAddr: 0x5224, symBinAddr: 0x100008CD0, symSize: 0x28 }
  - { offsetInCU: 0x18411, offset: 0x18411, size: 0x8, addend: 0x0, symName: __ZNSt3__112basic_stringIcNS_11char_traitsIcEENS_9allocatorIcEEE16__set_short_sizeB7v160006Em, symObjAddr: 0x524C, symBinAddr: 0x100008CF8, symSize: 0x78 }
  - { offsetInCU: 0x18446, offset: 0x18446, size: 0x8, addend: 0x0, symName: __ZNSt3__114pointer_traitsIPcE10pointer_toB7v160006ERc, symObjAddr: 0x52C4, symBinAddr: 0x100008D70, symSize: 0x14 }
  - { offsetInCU: 0x18469, offset: 0x18469, size: 0x8, addend: 0x0, symName: __ZNSt3__111char_traitsIcE11to_int_typeEc, symObjAddr: 0x52D8, symBinAddr: 0x100008D84, symSize: 0x14 }
  - { offsetInCU: 0x1848C, offset: 0x1848C, size: 0x8, addend: 0x0, symName: __ZNKSt3__112basic_stringIcNS_11char_traitsIcEENS_9allocatorIcEEE15__get_long_sizeB7v160006Ev, symObjAddr: 0x52EC, symBinAddr: 0x100008D98, symSize: 0x28 }
  - { offsetInCU: 0x184B2, offset: 0x184B2, size: 0x8, addend: 0x0, symName: __ZNKSt3__112basic_stringIcNS_11char_traitsIcEENS_9allocatorIcEEE16__get_short_sizeB7v160006Ev, symObjAddr: 0x5314, symBinAddr: 0x100008DC0, symSize: 0x34 }
  - { offsetInCU: 0x184E2, offset: 0x184E2, size: 0x8, addend: 0x0, symName: __ZNSt3__116allocator_traitsINS_9allocatorIcEEE8max_sizeB7v160006IS2_vEEmRKS2_, symObjAddr: 0x5348, symBinAddr: 0x100008DF4, symSize: 0x24 }
  - { offsetInCU: 0x18510, offset: 0x18510, size: 0x8, addend: 0x0, symName: __ZNKSt3__112basic_stringIcNS_11char_traitsIcEENS_9allocatorIcEEE7__allocB7v160006Ev, symObjAddr: 0x536C, symBinAddr: 0x100008E18, symSize: 0x24 }
  - { offsetInCU: 0x18536, offset: 0x18536, size: 0x8, addend: 0x0, symName: __ZNSt3__114numeric_limitsImE3maxB7v160006Ev, symObjAddr: 0x5390, symBinAddr: 0x100008E3C, symSize: 0x14 }
  - { offsetInCU: 0x1854A, offset: 0x1854A, size: 0x8, addend: 0x0, symName: __ZNKSt3__19allocatorIcE8max_sizeB7v160006Ev, symObjAddr: 0x53A4, symBinAddr: 0x100008E50, symSize: 0x14 }
  - { offsetInCU: 0x18570, offset: 0x18570, size: 0x8, addend: 0x0, symName: __ZNKSt3__117__compressed_pairINS_12basic_stringIcNS_11char_traitsIcEENS_9allocatorIcEEE5__repES5_E6secondB7v160006Ev, symObjAddr: 0x53B8, symBinAddr: 0x100008E64, symSize: 0x24 }
  - { offsetInCU: 0x18596, offset: 0x18596, size: 0x8, addend: 0x0, symName: __ZNKSt3__122__compressed_pair_elemINS_9allocatorIcEELi1ELb1EE5__getB7v160006Ev, symObjAddr: 0x53DC, symBinAddr: 0x100008E88, symSize: 0x14 }
  - { offsetInCU: 0x185BC, offset: 0x185BC, size: 0x8, addend: 0x0, symName: __ZNSt3__123__libcpp_numeric_limitsImLb1EE3maxB7v160006Ev, symObjAddr: 0x53F0, symBinAddr: 0x100008E9C, symSize: 0x8 }
  - { offsetInCU: 0x185D0, offset: 0x185D0, size: 0x8, addend: 0x0, symName: __ZNKSt3__18ios_base10exceptionsB7v160006Ev, symObjAddr: 0x53F8, symBinAddr: 0x100008EA4, symSize: 0x18 }
  - { offsetInCU: 0x185F8, offset: 0x185F8, size: 0x8, addend: 0x0, symName: __ZNKSt3__19basic_iosIcNS_11char_traitsIcEEE4failB7v160006Ev, symObjAddr: 0x5410, symBinAddr: 0x100008EBC, symSize: 0x28 }
  - { offsetInCU: 0x1861E, offset: 0x1861E, size: 0x8, addend: 0x0, symName: __ZNKSt3__18ios_base4failB7v160006Ev, symObjAddr: 0x5438, symBinAddr: 0x100008EE4, symSize: 0x28 }
  - { offsetInCU: 0x18646, offset: 0x18646, size: 0x8, addend: 0x0, symName: __ZNSt3__112basic_stringIcNS_11char_traitsIcEENS_9allocatorIcEEE15__make_iteratorB7v160006EPc, symObjAddr: 0x5460, symBinAddr: 0x100008F0C, symSize: 0x34 }
  - { offsetInCU: 0x1867B, offset: 0x1867B, size: 0x8, addend: 0x0, symName: __ZNSt3__112basic_stringIcNS_11char_traitsIcEENS_9allocatorIcEEE13__get_pointerB7v160006Ev, symObjAddr: 0x5494, symBinAddr: 0x100008F40, symSize: 0x54 }
  - { offsetInCU: 0x186A1, offset: 0x186A1, size: 0x8, addend: 0x0, symName: __ZNSt3__111__wrap_iterIPcEC1B7v160006EPKvS1_, symObjAddr: 0x54E8, symBinAddr: 0x100008F94, symSize: 0x3C }
  - { offsetInCU: 0x186E7, offset: 0x186E7, size: 0x8, addend: 0x0, symName: __ZNSt3__111__wrap_iterIPcEC2B7v160006EPKvS1_, symObjAddr: 0x5524, symBinAddr: 0x100008FD0, symSize: 0x24 }
  - { offsetInCU: 0x1872D, offset: 0x1872D, size: 0x8, addend: 0x0, symName: __ZNSt3__111__wrap_iterIPcEppB7v160006Ev, symObjAddr: 0x55FC, symBinAddr: 0x1000090A8, symSize: 0x20 }
  - { offsetInCU: 0x18753, offset: 0x18753, size: 0x8, addend: 0x0, symName: __ZNKSt3__111__wrap_iterIPcEdeB7v160006Ev, symObjAddr: 0x561C, symBinAddr: 0x1000090C8, symSize: 0x18 }
  - { offsetInCU: 0x18779, offset: 0x18779, size: 0x8, addend: 0x0, symName: __ZNKSt3__111__wrap_iterIPcE4baseB7v160006Ev, symObjAddr: 0x567C, symBinAddr: 0x100009128, symSize: 0x18 }
  - { offsetInCU: 0x1879F, offset: 0x1879F, size: 0x8, addend: 0x0, symName: __ZNKSt3__111__wrap_iterIPcEplB7v160006El, symObjAddr: 0x5714, symBinAddr: 0x1000091C0, symSize: 0x3C }
  - { offsetInCU: 0x187E1, offset: 0x187E1, size: 0x8, addend: 0x0, symName: __ZNKSt3__111__wrap_iterIPKcE4baseB7v160006Ev, symObjAddr: 0x5750, symBinAddr: 0x1000091FC, symSize: 0x18 }
  - { offsetInCU: 0x18807, offset: 0x18807, size: 0x8, addend: 0x0, symName: __ZNSt3__111__wrap_iterIPcEpLB7v160006El, symObjAddr: 0x5768, symBinAddr: 0x100009214, symSize: 0x28 }
  - { offsetInCU: 0x1883B, offset: 0x1883B, size: 0x8, addend: 0x0, symName: __ZNSt3__111__wrap_iterIPKcEC2B7v160006IPcEERKNS0_IT_EEPNS_9enable_ifIXsr14is_convertibleIS6_S2_EE5valueEvE4typeE, symObjAddr: 0x5790, symBinAddr: 0x10000923C, symSize: 0x40 }
  - { offsetInCU: 0x18886, offset: 0x18886, size: 0x8, addend: 0x0, symName: __ZNSt3__115basic_stringbufIcNS_11char_traitsIcEENS_9allocatorIcEEEC1B7v160006ERKNS_12basic_stringIcS2_S4_EEj, symObjAddr: 0x57D0, symBinAddr: 0x10000927C, symSize: 0x3C }
  - { offsetInCU: 0x188CC, offset: 0x188CC, size: 0x8, addend: 0x0, symName: __ZNSt3__115basic_stringbufIcNS_11char_traitsIcEENS_9allocatorIcEEEC2B7v160006ERKNS_12basic_stringIcS2_S4_EEj, symObjAddr: 0x580C, symBinAddr: 0x1000092B8, symSize: 0xB4 }
  - { offsetInCU: 0x18912, offset: 0x18912, size: 0x8, addend: 0x0, symName: __ZNKSt3__112basic_stringIcNS_11char_traitsIcEENS_9allocatorIcEEE13get_allocatorB7v160006Ev, symObjAddr: 0x58C0, symBinAddr: 0x10000936C, symSize: 0x24 }
  - { offsetInCU: 0x18938, offset: 0x18938, size: 0x8, addend: 0x0, symName: __ZNSt3__112basic_stringIcNS_11char_traitsIcEENS_9allocatorIcEEEC1B7v160006ERKS4_, symObjAddr: 0x58E4, symBinAddr: 0x100009390, symSize: 0x34 }
  - { offsetInCU: 0x18971, offset: 0x18971, size: 0x8, addend: 0x0, symName: __ZNSt3__112basic_stringIcNS_11char_traitsIcEENS_9allocatorIcEEEC2B7v160006ERKS4_, symObjAddr: 0x5918, symBinAddr: 0x1000093C4, symSize: 0x50 }
  - { offsetInCU: 0x189AA, offset: 0x189AA, size: 0x8, addend: 0x0, symName: __ZNSt3__117__compressed_pairINS_12basic_stringIcNS_11char_traitsIcEENS_9allocatorIcEEE5__repES5_EC1B7v160006INS_18__default_init_tagERKS5_EEOT_OT0_, symObjAddr: 0x5968, symBinAddr: 0x100009414, symSize: 0x3C }
  - { offsetInCU: 0x18A02, offset: 0x18A02, size: 0x8, addend: 0x0, symName: __ZNSt3__117__compressed_pairINS_12basic_stringIcNS_11char_traitsIcEENS_9allocatorIcEEE5__repES5_EC2B7v160006INS_18__default_init_tagERKS5_EEOT_OT0_, symObjAddr: 0x59A4, symBinAddr: 0x100009450, symSize: 0x40 }
  - { offsetInCU: 0x18A5A, offset: 0x18A5A, size: 0x8, addend: 0x0, symName: __ZNSt3__122__compressed_pair_elemINS_9allocatorIcEELi1ELb1EEC2B7v160006IRKS2_vEEOT_, symObjAddr: 0x59E4, symBinAddr: 0x100009490, symSize: 0x18 }
  - { offsetInCU: 0x18A9C, offset: 0x18A9C, size: 0x8, addend: 0x0, symName: __ZNKSt3__18ios_base3eofB7v160006Ev, symObjAddr: 0x59FC, symBinAddr: 0x1000094A8, symSize: 0x24 }
  - { offsetInCU: 0x18AC4, offset: 0x18AC4, size: 0x8, addend: 0x0, symName: __ZNSt3__115basic_streambufIcNS_11char_traitsIcEEE5sgetcB7v160006Ev, symObjAddr: 0x5A20, symBinAddr: 0x1000094CC, symSize: 0x70 }
  - { offsetInCU: 0x18AEA, offset: 0x18AEA, size: 0x8, addend: 0x0, symName: __ZNKSt3__15ctypeIcE2isB7v160006Ejc, symObjAddr: 0x5A90, symBinAddr: 0x10000953C, symSize: 0x7C }
  - { offsetInCU: 0x18B2D, offset: 0x18B2D, size: 0x8, addend: 0x0, symName: __Z7isasciii, symObjAddr: 0x5B0C, symBinAddr: 0x1000095B8, symSize: 0x24 }
  - { offsetInCU: 0x18B5A, offset: 0x18B5A, size: 0x8, addend: 0x0, symName: __ZNSt3__16vectorIiNS_9allocatorIiEEE9__end_capB7v160006Ev, symObjAddr: 0x5B30, symBinAddr: 0x1000095DC, symSize: 0x28 }
  - { offsetInCU: 0x18B80, offset: 0x18B80, size: 0x8, addend: 0x0, symName: __ZNSt3__16vectorIiNS_9allocatorIiEEE22__construct_one_at_endB7v160006IJRKiEEEvDpOT_, symObjAddr: 0x5B58, symBinAddr: 0x100009604, symSize: 0x90 }
  - { offsetInCU: 0x18BCF, offset: 0x18BCF, size: 0x8, addend: 0x0, symName: __ZNSt3__16vectorIiNS_9allocatorIiEEE21__push_back_slow_pathIRKiEEvOT_, symObjAddr: 0x5BE8, symBinAddr: 0x100009694, symSize: 0xD8 }
  - { offsetInCU: 0x18C2D, offset: 0x18C2D, size: 0x8, addend: 0x0, symName: __ZNSt3__117__compressed_pairIPiNS_9allocatorIiEEE5firstB7v160006Ev, symObjAddr: 0x5CC0, symBinAddr: 0x10000976C, symSize: 0x24 }
  - { offsetInCU: 0x18C53, offset: 0x18C53, size: 0x8, addend: 0x0, symName: __ZNSt3__122__compressed_pair_elemIPiLi0ELb0EE5__getB7v160006Ev, symObjAddr: 0x5CE4, symBinAddr: 0x100009790, symSize: 0x14 }
  - { offsetInCU: 0x18C92, offset: 0x18C92, size: 0x8, addend: 0x0, symName: __ZNSt3__16vectorIiNS_9allocatorIiEEE21_ConstructTransactionC1B7v160006ERS3_m, symObjAddr: 0x5CF8, symBinAddr: 0x1000097A4, symSize: 0x3C }
  - { offsetInCU: 0x18CDA, offset: 0x18CDA, size: 0x8, addend: 0x0, symName: __ZNSt3__116allocator_traitsINS_9allocatorIiEEE9constructB7v160006IiJRKiEvEEvRS2_PT_DpOT0_, symObjAddr: 0x5D34, symBinAddr: 0x1000097E0, symSize: 0x34 }
  - { offsetInCU: 0x18D31, offset: 0x18D31, size: 0x8, addend: 0x0, symName: __ZNSt3__16vectorIiNS_9allocatorIiEEE21_ConstructTransactionD1B7v160006Ev, symObjAddr: 0x5D68, symBinAddr: 0x100009814, symSize: 0x2C }
  - { offsetInCU: 0x18D5B, offset: 0x18D5B, size: 0x8, addend: 0x0, symName: __ZNSt3__16vectorIiNS_9allocatorIiEEE21_ConstructTransactionC2B7v160006ERS3_m, symObjAddr: 0x5D94, symBinAddr: 0x100009840, symSize: 0x44 }
  - { offsetInCU: 0x18DA3, offset: 0x18DA3, size: 0x8, addend: 0x0, symName: __ZNSt3__19allocatorIiE9constructB7v160006IiJRKiEEEvPT_DpOT0_, symObjAddr: 0x5DD8, symBinAddr: 0x100009884, symSize: 0x28 }
  - { offsetInCU: 0x18DF9, offset: 0x18DF9, size: 0x8, addend: 0x0, symName: __ZNSt3__16vectorIiNS_9allocatorIiEEE21_ConstructTransactionD2B7v160006Ev, symObjAddr: 0x5E00, symBinAddr: 0x1000098AC, symSize: 0x20 }
  - { offsetInCU: 0x18E23, offset: 0x18E23, size: 0x8, addend: 0x0, symName: __ZNKSt3__16vectorIiNS_9allocatorIiEEE11__recommendB7v160006Em, symObjAddr: 0x5E20, symBinAddr: 0x1000098CC, symSize: 0xB4 }
  - { offsetInCU: 0x18E78, offset: 0x18E78, size: 0x8, addend: 0x0, symName: __ZNSt3__114__split_bufferIiRNS_9allocatorIiEEEC1EmmS3_, symObjAddr: 0x5ED4, symBinAddr: 0x100009980, symSize: 0x44 }
  - { offsetInCU: 0x18ECE, offset: 0x18ECE, size: 0x8, addend: 0x0, symName: __ZNSt3__114__split_bufferIiRNS_9allocatorIiEEED1Ev, symObjAddr: 0x6030, symBinAddr: 0x100009ADC, symSize: 0x2C }
  - { offsetInCU: 0x18EFA, offset: 0x18EFA, size: 0x8, addend: 0x0, symName: __ZNKSt3__16vectorIiNS_9allocatorIiEEE8max_sizeEv, symObjAddr: 0x605C, symBinAddr: 0x100009B08, symSize: 0x60 }
  - { offsetInCU: 0x18F22, offset: 0x18F22, size: 0x8, addend: 0x0, symName: __ZNKSt3__16vectorIiNS_9allocatorIiEEE20__throw_length_errorB7v160006Ev, symObjAddr: 0x60BC, symBinAddr: 0x100009B68, symSize: 0x1C }
  - { offsetInCU: 0x18F52, offset: 0x18F52, size: 0x8, addend: 0x0, symName: __ZNSt3__116allocator_traitsINS_9allocatorIiEEE8max_sizeB7v160006IS2_vEEmRKS2_, symObjAddr: 0x6130, symBinAddr: 0x100009BDC, symSize: 0x24 }
  - { offsetInCU: 0x18F80, offset: 0x18F80, size: 0x8, addend: 0x0, symName: __ZNKSt3__16vectorIiNS_9allocatorIiEEE7__allocB7v160006Ev, symObjAddr: 0x6154, symBinAddr: 0x100009C00, symSize: 0x28 }
  - { offsetInCU: 0x18FA6, offset: 0x18FA6, size: 0x8, addend: 0x0, symName: __ZNSt3__114numeric_limitsIlE3maxB7v160006Ev, symObjAddr: 0x617C, symBinAddr: 0x100009C28, symSize: 0x14 }
  - { offsetInCU: 0x18FCE, offset: 0x18FCE, size: 0x8, addend: 0x0, symName: __ZNKSt3__16__lessImmEclB7v160006ERKmS3_, symObjAddr: 0x61E4, symBinAddr: 0x100009C90, symSize: 0x34 }
  - { offsetInCU: 0x19010, offset: 0x19010, size: 0x8, addend: 0x0, symName: __ZNKSt3__19allocatorIiE8max_sizeB7v160006Ev, symObjAddr: 0x6218, symBinAddr: 0x100009CC4, symSize: 0x14 }
  - { offsetInCU: 0x19036, offset: 0x19036, size: 0x8, addend: 0x0, symName: __ZNKSt3__117__compressed_pairIPiNS_9allocatorIiEEE6secondB7v160006Ev, symObjAddr: 0x622C, symBinAddr: 0x100009CD8, symSize: 0x24 }
  - { offsetInCU: 0x1905C, offset: 0x1905C, size: 0x8, addend: 0x0, symName: __ZNKSt3__122__compressed_pair_elemINS_9allocatorIiEELi1ELb1EE5__getB7v160006Ev, symObjAddr: 0x6250, symBinAddr: 0x100009CFC, symSize: 0x14 }
  - { offsetInCU: 0x19082, offset: 0x19082, size: 0x8, addend: 0x0, symName: __ZNSt3__123__libcpp_numeric_limitsIlLb1EE3maxB7v160006Ev, symObjAddr: 0x6264, symBinAddr: 0x100009D10, symSize: 0x8 }
  - { offsetInCU: 0x19096, offset: 0x19096, size: 0x8, addend: 0x0, symName: __ZNSt12length_errorC1B7v160006EPKc, symObjAddr: 0x62D0, symBinAddr: 0x100009D7C, symSize: 0x34 }
  - { offsetInCU: 0x190CE, offset: 0x190CE, size: 0x8, addend: 0x0, symName: __ZNSt12length_errorC2B7v160006EPKc, symObjAddr: 0x6304, symBinAddr: 0x100009DB0, symSize: 0x4C }
  - { offsetInCU: 0x19106, offset: 0x19106, size: 0x8, addend: 0x0, symName: __ZNSt3__114__split_bufferIiRNS_9allocatorIiEEEC2EmmS3_, symObjAddr: 0x63A4, symBinAddr: 0x100009E50, symSize: 0xD4 }
  - { offsetInCU: 0x19179, offset: 0x19179, size: 0x8, addend: 0x0, symName: __ZNSt3__117__compressed_pairIPiRNS_9allocatorIiEEEC1B7v160006IDnS4_EEOT_OT0_, symObjAddr: 0x6478, symBinAddr: 0x100009F24, symSize: 0x3C }
  - { offsetInCU: 0x191D1, offset: 0x191D1, size: 0x8, addend: 0x0, symName: __ZNSt3__114__split_bufferIiRNS_9allocatorIiEEE7__allocB7v160006Ev, symObjAddr: 0x64F4, symBinAddr: 0x100009FA0, symSize: 0x28 }
  - { offsetInCU: 0x191F7, offset: 0x191F7, size: 0x8, addend: 0x0, symName: __ZNSt3__114__split_bufferIiRNS_9allocatorIiEEE9__end_capB7v160006Ev, symObjAddr: 0x651C, symBinAddr: 0x100009FC8, symSize: 0x28 }
  - { offsetInCU: 0x1921D, offset: 0x1921D, size: 0x8, addend: 0x0, symName: __ZNSt3__117__compressed_pairIPiRNS_9allocatorIiEEEC2B7v160006IDnS4_EEOT_OT0_, symObjAddr: 0x6544, symBinAddr: 0x100009FF0, symSize: 0x48 }
  - { offsetInCU: 0x19275, offset: 0x19275, size: 0x8, addend: 0x0, symName: __ZNSt3__122__compressed_pair_elemIRNS_9allocatorIiEELi1ELb0EEC2B7v160006IS3_vEEOT_, symObjAddr: 0x658C, symBinAddr: 0x10000A038, symSize: 0x20 }
  - { offsetInCU: 0x192B7, offset: 0x192B7, size: 0x8, addend: 0x0, symName: __ZNSt3__19allocatorIiE8allocateB7v160006Em, symObjAddr: 0x65AC, symBinAddr: 0x10000A058, symSize: 0x58 }
  - { offsetInCU: 0x192EB, offset: 0x192EB, size: 0x8, addend: 0x0, symName: __ZNSt3__117__compressed_pairIPiRNS_9allocatorIiEEE6secondB7v160006Ev, symObjAddr: 0x6684, symBinAddr: 0x10000A130, symSize: 0x28 }
  - { offsetInCU: 0x19311, offset: 0x19311, size: 0x8, addend: 0x0, symName: __ZNSt3__122__compressed_pair_elemIRNS_9allocatorIiEELi1ELb0EE5__getB7v160006Ev, symObjAddr: 0x66AC, symBinAddr: 0x10000A158, symSize: 0x18 }
  - { offsetInCU: 0x19337, offset: 0x19337, size: 0x8, addend: 0x0, symName: __ZNSt3__117__compressed_pairIPiRNS_9allocatorIiEEE5firstB7v160006Ev, symObjAddr: 0x66C4, symBinAddr: 0x10000A170, symSize: 0x24 }
  - { offsetInCU: 0x1935D, offset: 0x1935D, size: 0x8, addend: 0x0, symName: __ZNSt3__116reverse_iteratorIPiEC1B7v160006ES1_, symObjAddr: 0x6760, symBinAddr: 0x10000A20C, symSize: 0x34 }
  - { offsetInCU: 0x19395, offset: 0x19395, size: 0x8, addend: 0x0, symName: __ZNKSt3__116reverse_iteratorIPiE4baseB7v160006Ev, symObjAddr: 0x6794, symBinAddr: 0x10000A240, symSize: 0x18 }
  - { offsetInCU: 0x193BB, offset: 0x193BB, size: 0x8, addend: 0x0, symName: __ZNKSt3__16vectorIiNS_9allocatorIiEEE14__annotate_newB7v160006Em, symObjAddr: 0x67E8, symBinAddr: 0x10000A294, symSize: 0xAC }
  - { offsetInCU: 0x19413, offset: 0x19413, size: 0x8, addend: 0x0, symName: __ZNKSt3__111__move_loopINS_17_ClassicAlgPolicyEEclB7v160006INS_16reverse_iteratorIPiEES6_S6_EENS_4pairIT_T1_EES8_T0_S9_, symObjAddr: 0x6B94, symBinAddr: 0x10000A640, symSize: 0xA0 }
  - { offsetInCU: 0x19483, offset: 0x19483, size: 0x8, addend: 0x0, symName: __ZNSt3__18_IterOpsINS_17_ClassicAlgPolicyEE11__iter_moveB7v160006IRNS_16reverse_iteratorIPiEEEENS_9enable_ifIXsr12is_referenceIDTdeclsr3stdE7declvalIRT_EEEEE5valueEDTclsr3stdE4movedeclsr3stdE7declvalISA_EEEEE4typeEOS9_, symObjAddr: 0x6DC8, symBinAddr: 0x10000A874, symSize: 0x28 }
  - { offsetInCU: 0x194AF, offset: 0x194AF, size: 0x8, addend: 0x0, symName: __ZNKSt3__116reverse_iteratorIPiEdeB7v160006Ev, symObjAddr: 0x6DF0, symBinAddr: 0x10000A89C, symSize: 0x28 }
  - { offsetInCU: 0x194E3, offset: 0x194E3, size: 0x8, addend: 0x0, symName: __ZNSt3__116reverse_iteratorIPiEppB7v160006Ev, symObjAddr: 0x6E18, symBinAddr: 0x10000A8C4, symSize: 0x20 }
  - { offsetInCU: 0x19509, offset: 0x19509, size: 0x8, addend: 0x0, symName: __ZNSt3__18_IterOpsINS_17_ClassicAlgPolicyEE25__validate_iter_referenceB7v160006IRNS_16reverse_iteratorIPiEEEEvv, symObjAddr: 0x6E38, symBinAddr: 0x10000A8E4, symSize: 0x4 }
  - { offsetInCU: 0x19527, offset: 0x19527, size: 0x8, addend: 0x0, symName: __ZNSt3__118__unwrap_iter_implINS_16reverse_iteratorIPiEELb0EE8__unwrapB7v160006ES3_, symObjAddr: 0x6E3C, symBinAddr: 0x10000A8E8, symSize: 0x24 }
  - { offsetInCU: 0x1954F, offset: 0x1954F, size: 0x8, addend: 0x0, symName: __ZNSt3__14pairINS_16reverse_iteratorIPiEES3_EC1B7v160006IS3_S3_LPv0EEEOT_OT0_, symObjAddr: 0x6E60, symBinAddr: 0x10000A90C, symSize: 0x3C }
  - { offsetInCU: 0x195AD, offset: 0x195AD, size: 0x8, addend: 0x0, symName: __ZNSt3__14pairINS_16reverse_iteratorIPiEES3_EC2B7v160006IS3_S3_LPv0EEEOT_OT0_, symObjAddr: 0x6E9C, symBinAddr: 0x10000A948, symSize: 0x34 }
  - { offsetInCU: 0x1960B, offset: 0x1960B, size: 0x8, addend: 0x0, symName: __ZNSt3__118__unwrap_iter_implINS_16reverse_iteratorIPiEELb0EE8__rewrapB7v160006ES3_S3_, symObjAddr: 0x6ED0, symBinAddr: 0x10000A97C, symSize: 0x2C }
  - { offsetInCU: 0x19638, offset: 0x19638, size: 0x8, addend: 0x0, symName: __ZNSt3__116reverse_iteratorIPiEC2B7v160006ES1_, symObjAddr: 0x6EFC, symBinAddr: 0x10000A9A8, symSize: 0x28 }
  - { offsetInCU: 0x19670, offset: 0x19670, size: 0x8, addend: 0x0, symName: __ZNSt3__114__split_bufferIiRNS_9allocatorIiEEED2Ev, symObjAddr: 0x6F24, symBinAddr: 0x10000A9D0, symSize: 0x8C }
  - { offsetInCU: 0x1969C, offset: 0x1969C, size: 0x8, addend: 0x0, symName: __ZNSt3__114__split_bufferIiRNS_9allocatorIiEEE5clearB7v160006Ev, symObjAddr: 0x6FB0, symBinAddr: 0x10000AA5C, symSize: 0x28 }
  - { offsetInCU: 0x196C2, offset: 0x196C2, size: 0x8, addend: 0x0, symName: __ZNKSt3__114__split_bufferIiRNS_9allocatorIiEEE8capacityB7v160006Ev, symObjAddr: 0x6FD8, symBinAddr: 0x10000AA84, symSize: 0x40 }
  - { offsetInCU: 0x196E8, offset: 0x196E8, size: 0x8, addend: 0x0, symName: __ZNSt3__114__split_bufferIiRNS_9allocatorIiEEE17__destruct_at_endB7v160006EPi, symObjAddr: 0x7018, symBinAddr: 0x10000AAC4, symSize: 0x2C }
  - { offsetInCU: 0x1971C, offset: 0x1971C, size: 0x8, addend: 0x0, symName: __ZNSt3__114__split_bufferIiRNS_9allocatorIiEEE17__destruct_at_endB7v160006EPiNS_17integral_constantIbLb0EEE, symObjAddr: 0x7044, symBinAddr: 0x10000AAF0, symSize: 0x80 }
  - { offsetInCU: 0x1975C, offset: 0x1975C, size: 0x8, addend: 0x0, symName: __ZNKSt3__114__split_bufferIiRNS_9allocatorIiEEE9__end_capB7v160006Ev, symObjAddr: 0x70C4, symBinAddr: 0x10000AB70, symSize: 0x28 }
  - { offsetInCU: 0x19782, offset: 0x19782, size: 0x8, addend: 0x0, symName: __ZNKSt3__117__compressed_pairIPiRNS_9allocatorIiEEE5firstB7v160006Ev, symObjAddr: 0x70EC, symBinAddr: 0x10000AB98, symSize: 0x24 }
  - { offsetInCU: 0x197A8, offset: 0x197A8, size: 0x8, addend: 0x0, symName: __ZNSt3__16vectorI5PointNS_9allocatorIS1_EEE9__end_capB7v160006Ev, symObjAddr: 0x7110, symBinAddr: 0x10000ABBC, symSize: 0x28 }
  - { offsetInCU: 0x197CE, offset: 0x197CE, size: 0x8, addend: 0x0, symName: __ZNSt3__16vectorI5PointNS_9allocatorIS1_EEE22__construct_one_at_endB7v160006IJRS1_EEEvDpOT_, symObjAddr: 0x7138, symBinAddr: 0x10000ABE4, symSize: 0x90 }
  - { offsetInCU: 0x1981D, offset: 0x1981D, size: 0x8, addend: 0x0, symName: __ZNSt3__16vectorI5PointNS_9allocatorIS1_EEE24__emplace_back_slow_pathIJRS1_EEEvDpOT_, symObjAddr: 0x71C8, symBinAddr: 0x10000AC74, symSize: 0xD8 }
  - { offsetInCU: 0x1987D, offset: 0x1987D, size: 0x8, addend: 0x0, symName: __ZNSt3__117__compressed_pairIP5PointNS_9allocatorIS1_EEE5firstB7v160006Ev, symObjAddr: 0x72A0, symBinAddr: 0x10000AD4C, symSize: 0x24 }
  - { offsetInCU: 0x198A3, offset: 0x198A3, size: 0x8, addend: 0x0, symName: __ZNSt3__122__compressed_pair_elemIP5PointLi0ELb0EE5__getB7v160006Ev, symObjAddr: 0x72C4, symBinAddr: 0x10000AD70, symSize: 0x14 }
  - { offsetInCU: 0x198E2, offset: 0x198E2, size: 0x8, addend: 0x0, symName: __ZNSt3__16vectorI5PointNS_9allocatorIS1_EEE21_ConstructTransactionC1B7v160006ERS4_m, symObjAddr: 0x72D8, symBinAddr: 0x10000AD84, symSize: 0x3C }
  - { offsetInCU: 0x1992A, offset: 0x1992A, size: 0x8, addend: 0x0, symName: __ZNSt3__116allocator_traitsINS_9allocatorI5PointEEE9constructB7v160006IS2_JRS2_EvEEvRS3_PT_DpOT0_, symObjAddr: 0x7314, symBinAddr: 0x10000ADC0, symSize: 0x34 }
  - { offsetInCU: 0x19981, offset: 0x19981, size: 0x8, addend: 0x0, symName: __ZNSt3__16vectorI5PointNS_9allocatorIS1_EEE21_ConstructTransactionD1B7v160006Ev, symObjAddr: 0x7348, symBinAddr: 0x10000ADF4, symSize: 0x2C }
  - { offsetInCU: 0x199AB, offset: 0x199AB, size: 0x8, addend: 0x0, symName: __ZNSt3__16vectorI5PointNS_9allocatorIS1_EEE21_ConstructTransactionC2B7v160006ERS4_m, symObjAddr: 0x7374, symBinAddr: 0x10000AE20, symSize: 0x4C }
  - { offsetInCU: 0x199F3, offset: 0x199F3, size: 0x8, addend: 0x0, symName: __ZNSt3__19allocatorI5PointE9constructB7v160006IS1_JRS1_EEEvPT_DpOT0_, symObjAddr: 0x73C0, symBinAddr: 0x10000AE6C, symSize: 0x30 }
  - { offsetInCU: 0x19A49, offset: 0x19A49, size: 0x8, addend: 0x0, symName: __ZNSt3__16vectorI5PointNS_9allocatorIS1_EEE21_ConstructTransactionD2B7v160006Ev, symObjAddr: 0x73F0, symBinAddr: 0x10000AE9C, symSize: 0x20 }
  - { offsetInCU: 0x19A73, offset: 0x19A73, size: 0x8, addend: 0x0, symName: __ZNKSt3__16vectorI5PointNS_9allocatorIS1_EEE11__recommendB7v160006Em, symObjAddr: 0x7410, symBinAddr: 0x10000AEBC, symSize: 0xB4 }
  - { offsetInCU: 0x19AC8, offset: 0x19AC8, size: 0x8, addend: 0x0, symName: __ZNSt3__114__split_bufferI5PointRNS_9allocatorIS1_EEEC1EmmS4_, symObjAddr: 0x74C4, symBinAddr: 0x10000AF70, symSize: 0x44 }
  - { offsetInCU: 0x19B1E, offset: 0x19B1E, size: 0x8, addend: 0x0, symName: __ZNSt3__114__split_bufferI5PointRNS_9allocatorIS1_EEED1Ev, symObjAddr: 0x7620, symBinAddr: 0x10000B0CC, symSize: 0x2C }
  - { offsetInCU: 0x19B4A, offset: 0x19B4A, size: 0x8, addend: 0x0, symName: __ZNKSt3__16vectorI5PointNS_9allocatorIS1_EEE8max_sizeEv, symObjAddr: 0x764C, symBinAddr: 0x10000B0F8, symSize: 0x60 }
  - { offsetInCU: 0x19B72, offset: 0x19B72, size: 0x8, addend: 0x0, symName: __ZNKSt3__16vectorI5PointNS_9allocatorIS1_EEE20__throw_length_errorB7v160006Ev, symObjAddr: 0x76AC, symBinAddr: 0x10000B158, symSize: 0x1C }
  - { offsetInCU: 0x19BA2, offset: 0x19BA2, size: 0x8, addend: 0x0, symName: __ZNSt3__116allocator_traitsINS_9allocatorI5PointEEE8max_sizeB7v160006IS3_vEEmRKS3_, symObjAddr: 0x76C8, symBinAddr: 0x10000B174, symSize: 0x24 }
  - { offsetInCU: 0x19BD0, offset: 0x19BD0, size: 0x8, addend: 0x0, symName: __ZNKSt3__16vectorI5PointNS_9allocatorIS1_EEE7__allocB7v160006Ev, symObjAddr: 0x76EC, symBinAddr: 0x10000B198, symSize: 0x28 }
  - { offsetInCU: 0x19BF6, offset: 0x19BF6, size: 0x8, addend: 0x0, symName: __ZNKSt3__19allocatorI5PointE8max_sizeB7v160006Ev, symObjAddr: 0x7714, symBinAddr: 0x10000B1C0, symSize: 0x18 }
  - { offsetInCU: 0x19C1C, offset: 0x19C1C, size: 0x8, addend: 0x0, symName: __ZNKSt3__117__compressed_pairIP5PointNS_9allocatorIS1_EEE6secondB7v160006Ev, symObjAddr: 0x772C, symBinAddr: 0x10000B1D8, symSize: 0x24 }
  - { offsetInCU: 0x19C42, offset: 0x19C42, size: 0x8, addend: 0x0, symName: __ZNKSt3__122__compressed_pair_elemINS_9allocatorI5PointEELi1ELb1EE5__getB7v160006Ev, symObjAddr: 0x7750, symBinAddr: 0x10000B1FC, symSize: 0x14 }
  - { offsetInCU: 0x19C68, offset: 0x19C68, size: 0x8, addend: 0x0, symName: __ZNSt3__114__split_bufferI5PointRNS_9allocatorIS1_EEEC2EmmS4_, symObjAddr: 0x7764, symBinAddr: 0x10000B210, symSize: 0xE0 }
  - { offsetInCU: 0x19CDB, offset: 0x19CDB, size: 0x8, addend: 0x0, symName: __ZNSt3__117__compressed_pairIP5PointRNS_9allocatorIS1_EEEC1B7v160006IDnS5_EEOT_OT0_, symObjAddr: 0x7844, symBinAddr: 0x10000B2F0, symSize: 0x3C }
  - { offsetInCU: 0x19D33, offset: 0x19D33, size: 0x8, addend: 0x0, symName: __ZNSt3__114__split_bufferI5PointRNS_9allocatorIS1_EEE7__allocB7v160006Ev, symObjAddr: 0x78C0, symBinAddr: 0x10000B36C, symSize: 0x28 }
  - { offsetInCU: 0x19D59, offset: 0x19D59, size: 0x8, addend: 0x0, symName: __ZNSt3__114__split_bufferI5PointRNS_9allocatorIS1_EEE9__end_capB7v160006Ev, symObjAddr: 0x78E8, symBinAddr: 0x10000B394, symSize: 0x28 }
  - { offsetInCU: 0x19D7F, offset: 0x19D7F, size: 0x8, addend: 0x0, symName: __ZNSt3__117__compressed_pairIP5PointRNS_9allocatorIS1_EEEC2B7v160006IDnS5_EEOT_OT0_, symObjAddr: 0x7910, symBinAddr: 0x10000B3BC, symSize: 0x48 }
  - { offsetInCU: 0x19DD7, offset: 0x19DD7, size: 0x8, addend: 0x0, symName: __ZNSt3__122__compressed_pair_elemIRNS_9allocatorI5PointEELi1ELb0EEC2B7v160006IS4_vEEOT_, symObjAddr: 0x7958, symBinAddr: 0x10000B404, symSize: 0x20 }
  - { offsetInCU: 0x19E19, offset: 0x19E19, size: 0x8, addend: 0x0, symName: __ZNSt3__19allocatorI5PointE8allocateB7v160006Em, symObjAddr: 0x7978, symBinAddr: 0x10000B424, symSize: 0x5C }
  - { offsetInCU: 0x19E4D, offset: 0x19E4D, size: 0x8, addend: 0x0, symName: __ZNSt3__117__compressed_pairIP5PointRNS_9allocatorIS1_EEE6secondB7v160006Ev, symObjAddr: 0x79D4, symBinAddr: 0x10000B480, symSize: 0x28 }
  - { offsetInCU: 0x19E73, offset: 0x19E73, size: 0x8, addend: 0x0, symName: __ZNSt3__122__compressed_pair_elemIRNS_9allocatorI5PointEELi1ELb0EE5__getB7v160006Ev, symObjAddr: 0x79FC, symBinAddr: 0x10000B4A8, symSize: 0x18 }
  - { offsetInCU: 0x19E99, offset: 0x19E99, size: 0x8, addend: 0x0, symName: __ZNSt3__117__compressed_pairIP5PointRNS_9allocatorIS1_EEE5firstB7v160006Ev, symObjAddr: 0x7A14, symBinAddr: 0x10000B4C0, symSize: 0x24 }
  - { offsetInCU: 0x19EBF, offset: 0x19EBF, size: 0x8, addend: 0x0, symName: __ZNSt3__116reverse_iteratorIP5PointEC1B7v160006ES2_, symObjAddr: 0x7AB0, symBinAddr: 0x10000B55C, symSize: 0x34 }
  - { offsetInCU: 0x19EF7, offset: 0x19EF7, size: 0x8, addend: 0x0, symName: __ZNKSt3__116reverse_iteratorIP5PointE4baseB7v160006Ev, symObjAddr: 0x7AE4, symBinAddr: 0x10000B590, symSize: 0x18 }
  - { offsetInCU: 0x19F1D, offset: 0x19F1D, size: 0x8, addend: 0x0, symName: __ZNKSt3__16vectorI5PointNS_9allocatorIS1_EEE14__annotate_newB7v160006Em, symObjAddr: 0x7B38, symBinAddr: 0x10000B5E4, symSize: 0xC8 }
  - { offsetInCU: 0x19F6B, offset: 0x19F6B, size: 0x8, addend: 0x0, symName: __ZNKSt3__111__move_loopINS_17_ClassicAlgPolicyEEclB7v160006INS_16reverse_iteratorIP5PointEES7_S7_EENS_4pairIT_T1_EES9_T0_SA_, symObjAddr: 0x7F00, symBinAddr: 0x10000B9AC, symSize: 0xA8 }
  - { offsetInCU: 0x19FDB, offset: 0x19FDB, size: 0x8, addend: 0x0, symName: __ZNSt3__18_IterOpsINS_17_ClassicAlgPolicyEE11__iter_moveB7v160006IRNS_16reverse_iteratorIP5PointEEEENS_9enable_ifIXsr12is_referenceIDTdeclsr3stdE7declvalIRT_EEEEE5valueEDTclsr3stdE4movedeclsr3stdE7declvalISB_EEEEE4typeEOSA_, symObjAddr: 0x813C, symBinAddr: 0x10000BBE8, symSize: 0x28 }
  - { offsetInCU: 0x1A007, offset: 0x1A007, size: 0x8, addend: 0x0, symName: __ZNKSt3__116reverse_iteratorIP5PointEdeB7v160006Ev, symObjAddr: 0x8164, symBinAddr: 0x10000BC10, symSize: 0x28 }
  - { offsetInCU: 0x1A03B, offset: 0x1A03B, size: 0x8, addend: 0x0, symName: __ZNSt3__116reverse_iteratorIP5PointEppB7v160006Ev, symObjAddr: 0x818C, symBinAddr: 0x10000BC38, symSize: 0x20 }
  - { offsetInCU: 0x1A061, offset: 0x1A061, size: 0x8, addend: 0x0, symName: __ZNSt3__18_IterOpsINS_17_ClassicAlgPolicyEE25__validate_iter_referenceB7v160006IRNS_16reverse_iteratorIP5PointEEEEvv, symObjAddr: 0x81AC, symBinAddr: 0x10000BC58, symSize: 0x4 }
  - { offsetInCU: 0x1A07F, offset: 0x1A07F, size: 0x8, addend: 0x0, symName: __ZNSt3__118__unwrap_iter_implINS_16reverse_iteratorIP5PointEELb0EE8__unwrapB7v160006ES4_, symObjAddr: 0x81B0, symBinAddr: 0x10000BC5C, symSize: 0x24 }
  - { offsetInCU: 0x1A0A7, offset: 0x1A0A7, size: 0x8, addend: 0x0, symName: __ZNSt3__14pairINS_16reverse_iteratorIP5PointEES4_EC1B7v160006IS4_S4_LPv0EEEOT_OT0_, symObjAddr: 0x81D4, symBinAddr: 0x10000BC80, symSize: 0x3C }
  - { offsetInCU: 0x1A105, offset: 0x1A105, size: 0x8, addend: 0x0, symName: __ZNSt3__14pairINS_16reverse_iteratorIP5PointEES4_EC2B7v160006IS4_S4_LPv0EEEOT_OT0_, symObjAddr: 0x8210, symBinAddr: 0x10000BCBC, symSize: 0x34 }
  - { offsetInCU: 0x1A163, offset: 0x1A163, size: 0x8, addend: 0x0, symName: __ZNSt3__118__unwrap_iter_implINS_16reverse_iteratorIP5PointEELb0EE8__rewrapB7v160006ES4_S4_, symObjAddr: 0x8244, symBinAddr: 0x10000BCF0, symSize: 0x2C }
  - { offsetInCU: 0x1A190, offset: 0x1A190, size: 0x8, addend: 0x0, symName: __ZNSt3__116reverse_iteratorIP5PointEC2B7v160006ES2_, symObjAddr: 0x8270, symBinAddr: 0x10000BD1C, symSize: 0x28 }
  - { offsetInCU: 0x1A1C8, offset: 0x1A1C8, size: 0x8, addend: 0x0, symName: __ZNSt3__114__split_bufferI5PointRNS_9allocatorIS1_EEED2Ev, symObjAddr: 0x8298, symBinAddr: 0x10000BD44, symSize: 0x8C }
  - { offsetInCU: 0x1A1F4, offset: 0x1A1F4, size: 0x8, addend: 0x0, symName: __ZNSt3__114__split_bufferI5PointRNS_9allocatorIS1_EEE5clearB7v160006Ev, symObjAddr: 0x8324, symBinAddr: 0x10000BDD0, symSize: 0x28 }
  - { offsetInCU: 0x1A21A, offset: 0x1A21A, size: 0x8, addend: 0x0, symName: __ZNKSt3__114__split_bufferI5PointRNS_9allocatorIS1_EEE8capacityB7v160006Ev, symObjAddr: 0x834C, symBinAddr: 0x10000BDF8, symSize: 0x40 }
  - { offsetInCU: 0x1A240, offset: 0x1A240, size: 0x8, addend: 0x0, symName: __ZNSt3__114__split_bufferI5PointRNS_9allocatorIS1_EEE17__destruct_at_endB7v160006EPS1_, symObjAddr: 0x838C, symBinAddr: 0x10000BE38, symSize: 0x2C }
  - { offsetInCU: 0x1A274, offset: 0x1A274, size: 0x8, addend: 0x0, symName: __ZNSt3__114__split_bufferI5PointRNS_9allocatorIS1_EEE17__destruct_at_endB7v160006EPS1_NS_17integral_constantIbLb0EEE, symObjAddr: 0x83B8, symBinAddr: 0x10000BE64, symSize: 0x80 }
  - { offsetInCU: 0x1A2B4, offset: 0x1A2B4, size: 0x8, addend: 0x0, symName: __ZNKSt3__114__split_bufferI5PointRNS_9allocatorIS1_EEE9__end_capB7v160006Ev, symObjAddr: 0x8438, symBinAddr: 0x10000BEE4, symSize: 0x28 }
  - { offsetInCU: 0x1A2DA, offset: 0x1A2DA, size: 0x8, addend: 0x0, symName: __ZNKSt3__117__compressed_pairIP5PointRNS_9allocatorIS1_EEE5firstB7v160006Ev, symObjAddr: 0x8460, symBinAddr: 0x10000BF0C, symSize: 0x24 }
  - { offsetInCU: 0x1A300, offset: 0x1A300, size: 0x8, addend: 0x0, symName: __ZNSt3__16vectorIiNS_9allocatorIiEEE19__copy_assign_allocB7v160006ERKS3_, symObjAddr: 0x8484, symBinAddr: 0x10000BF30, symSize: 0x2C }
  - { offsetInCU: 0x1A335, offset: 0x1A335, size: 0x8, addend: 0x0, symName: __ZNSt3__16vectorIiNS_9allocatorIiEEE6assignIPiLi0EEEvT_S6_, symObjAddr: 0x84B0, symBinAddr: 0x10000BF5C, symSize: 0x17C }
  - { offsetInCU: 0x1A3D4, offset: 0x1A3D4, size: 0x8, addend: 0x0, symName: __ZNSt3__16vectorIiNS_9allocatorIiEEE19__copy_assign_allocB7v160006ERKS3_NS_17integral_constantIbLb0EEE, symObjAddr: 0x862C, symBinAddr: 0x10000C0D8, symSize: 0x14 }
  - { offsetInCU: 0x1A410, offset: 0x1A410, size: 0x8, addend: 0x0, symName: __ZNSt3__16vectorIiNS_9allocatorIiEEE18__construct_at_endIPiLi0EEEvT_S6_m, symObjAddr: 0x86FC, symBinAddr: 0x10000C1A8, symSize: 0x8C }
  - { offsetInCU: 0x1A483, offset: 0x1A483, size: 0x8, addend: 0x0, symName: __ZNSt3__16vectorIiNS_9allocatorIiEEE17__destruct_at_endB7v160006EPi, symObjAddr: 0x8788, symBinAddr: 0x10000C234, symSize: 0x60 }
  - { offsetInCU: 0x1A4C7, offset: 0x1A4C7, size: 0x8, addend: 0x0, symName: __ZNSt3__16vectorIiNS_9allocatorIiEEE13__vdeallocateEv, symObjAddr: 0x87E8, symBinAddr: 0x10000C294, symSize: 0x8C }
  - { offsetInCU: 0x1A4EF, offset: 0x1A4EF, size: 0x8, addend: 0x0, symName: __ZNSt3__16vectorIiNS_9allocatorIiEEE11__vallocateB7v160006Em, symObjAddr: 0x8874, symBinAddr: 0x10000C320, symSize: 0xAC }
  - { offsetInCU: 0x1A556, offset: 0x1A556, size: 0x8, addend: 0x0, symName: __ZNKSt3__114__copy_trivialclB7v160006IiiLi0EEENS_4pairIPT_PT0_EES4_S4_S6_, symObjAddr: 0x8B20, symBinAddr: 0x10000C5CC, symSize: 0x48 }
  - { offsetInCU: 0x1A5C3, offset: 0x1A5C3, size: 0x8, addend: 0x0, symName: __ZNSt3__14pairIPiS1_EC1B7v160006IRS1_S1_LPv0EEEOT_OT0_, symObjAddr: 0x8CE8, symBinAddr: 0x10000C794, symSize: 0x3C }
  - { offsetInCU: 0x1A621, offset: 0x1A621, size: 0x8, addend: 0x0, symName: __ZNSt3__14pairIPiS1_EC2B7v160006IRS1_S1_LPv0EEEOT_OT0_, symObjAddr: 0x8D24, symBinAddr: 0x10000C7D0, symSize: 0x34 }
  - { offsetInCU: 0x1A67F, offset: 0x1A67F, size: 0x8, addend: 0x0, symName: __ZNSt3__118__unwrap_iter_implIPiLb1EE8__unwrapB7v160006ES1_, symObjAddr: 0x8D58, symBinAddr: 0x10000C804, symSize: 0x24 }
  - { offsetInCU: 0x1A6A2, offset: 0x1A6A2, size: 0x8, addend: 0x0, symName: __ZNSt3__14pairIPiS1_EC1B7v160006IS1_S1_LPv0EEEOT_OT0_, symObjAddr: 0x8D7C, symBinAddr: 0x10000C828, symSize: 0x3C }
  - { offsetInCU: 0x1A700, offset: 0x1A700, size: 0x8, addend: 0x0, symName: __ZNSt3__14pairIPiS1_EC2B7v160006IS1_S1_LPv0EEEOT_OT0_, symObjAddr: 0x8DB8, symBinAddr: 0x10000C864, symSize: 0x34 }
  - { offsetInCU: 0x1A75E, offset: 0x1A75E, size: 0x8, addend: 0x0, symName: __ZNSt3__118__unwrap_iter_implIPiLb1EE8__rewrapB7v160006ES1_S1_, symObjAddr: 0x8DEC, symBinAddr: 0x10000C898, symSize: 0x50 }
  - { offsetInCU: 0x1A78F, offset: 0x1A78F, size: 0x8, addend: 0x0, symName: __ZNSt3__129_AllocatorDestroyRangeReverseINS_9allocatorIiEEPiEC1B7v160006ERS2_RS3_S6_, symObjAddr: 0x8F7C, symBinAddr: 0x10000CA28, symSize: 0x44 }
  - { offsetInCU: 0x1A7E6, offset: 0x1A7E6, size: 0x8, addend: 0x0, symName: __ZNSt3__116allocator_traitsINS_9allocatorIiEEE9constructB7v160006IiJRiEvEEvRS2_PT_DpOT0_, symObjAddr: 0x8FC0, symBinAddr: 0x10000CA6C, symSize: 0x34 }
  - { offsetInCU: 0x1A83D, offset: 0x1A83D, size: 0x8, addend: 0x0, symName: __ZNSt3__128__exception_guard_exceptionsINS_29_AllocatorDestroyRangeReverseINS_9allocatorIiEEPiEEE10__completeB7v160006Ev, symObjAddr: 0x8FF4, symBinAddr: 0x10000CAA0, symSize: 0x1C }
  - { offsetInCU: 0x1A863, offset: 0x1A863, size: 0x8, addend: 0x0, symName: __ZNSt3__128__exception_guard_exceptionsINS_29_AllocatorDestroyRangeReverseINS_9allocatorIiEEPiEEED1B7v160006Ev, symObjAddr: 0x9010, symBinAddr: 0x10000CABC, symSize: 0x2C }
  - { offsetInCU: 0x1A88D, offset: 0x1A88D, size: 0x8, addend: 0x0, symName: __ZNSt3__128__exception_guard_exceptionsINS_29_AllocatorDestroyRangeReverseINS_9allocatorIiEEPiEEEC1B7v160006ES5_, symObjAddr: 0x903C, symBinAddr: 0x10000CAE8, symSize: 0x34 }
  - { offsetInCU: 0x1A8C6, offset: 0x1A8C6, size: 0x8, addend: 0x0, symName: __ZNSt3__128__exception_guard_exceptionsINS_29_AllocatorDestroyRangeReverseINS_9allocatorIiEEPiEEEC2B7v160006ES5_, symObjAddr: 0x9070, symBinAddr: 0x10000CB1C, symSize: 0x30 }
  - { offsetInCU: 0x1A8FF, offset: 0x1A8FF, size: 0x8, addend: 0x0, symName: __ZNSt3__129_AllocatorDestroyRangeReverseINS_9allocatorIiEEPiEC2B7v160006ERS2_RS3_S6_, symObjAddr: 0x90A0, symBinAddr: 0x10000CB4C, symSize: 0x38 }
  - { offsetInCU: 0x1A956, offset: 0x1A956, size: 0x8, addend: 0x0, symName: __ZNSt3__19allocatorIiE9constructB7v160006IiJRiEEEvPT_DpOT0_, symObjAddr: 0x90D8, symBinAddr: 0x10000CB84, symSize: 0x28 }
  - { offsetInCU: 0x1A9AC, offset: 0x1A9AC, size: 0x8, addend: 0x0, symName: __ZNSt3__128__exception_guard_exceptionsINS_29_AllocatorDestroyRangeReverseINS_9allocatorIiEEPiEEED2B7v160006Ev, symObjAddr: 0x9100, symBinAddr: 0x10000CBAC, symSize: 0x50 }
  - { offsetInCU: 0x1A9D6, offset: 0x1A9D6, size: 0x8, addend: 0x0, symName: __ZNKSt3__129_AllocatorDestroyRangeReverseINS_9allocatorIiEEPiEclB7v160006Ev, symObjAddr: 0x9150, symBinAddr: 0x10000CBFC, symSize: 0x68 }
  - { offsetInCU: 0x1AA01, offset: 0x1AA01, size: 0x8, addend: 0x0, symName: __ZNSt3__119__to_address_helperINS_16reverse_iteratorIPiEEvE6__callB7v160006ERKS3_, symObjAddr: 0x924C, symBinAddr: 0x10000CCF8, symSize: 0x38 }
  - { offsetInCU: 0x1AA24, offset: 0x1AA24, size: 0x8, addend: 0x0, symName: __ZNKSt3__116reverse_iteratorIPiEptB7v160006Ev, symObjAddr: 0x9284, symBinAddr: 0x10000CD30, symSize: 0x24 }
  - { offsetInCU: 0x1AA4A, offset: 0x1AA4A, size: 0x8, addend: 0x0, symName: __ZNSt3__16vectorIiNS_9allocatorIiEEE27__invalidate_iterators_pastB7v160006EPi, symObjAddr: 0x92A8, symBinAddr: 0x10000CD54, symSize: 0x14 }
  - { offsetInCU: 0x1AA81, offset: 0x1AA81, size: 0x8, addend: 0x0, symName: __ZNKSt3__16vectorIiNS_9allocatorIiEEE17__annotate_shrinkB7v160006Em, symObjAddr: 0x92BC, symBinAddr: 0x10000CD68, symSize: 0xB4 }
  - { offsetInCU: 0x1AAB6, offset: 0x1AAB6, size: 0x8, addend: 0x0, symName: __ZNSt3__16vectorIiNS_9allocatorIiEEE5clearB7v160006Ev, symObjAddr: 0x9370, symBinAddr: 0x10000CE1C, symSize: 0x4C }
  - { offsetInCU: 0x1AAEB, offset: 0x1AAEB, size: 0x8, addend: 0x0, symName: __ZNSt3__16vectorI3PinNS_9allocatorIS1_EEE9__end_capB7v160006Ev, symObjAddr: 0x93BC, symBinAddr: 0x10000CE68, symSize: 0x28 }
  - { offsetInCU: 0x1AB11, offset: 0x1AB11, size: 0x8, addend: 0x0, symName: __ZNSt3__16vectorI3PinNS_9allocatorIS1_EEE22__construct_one_at_endB7v160006IJRS1_EEEvDpOT_, symObjAddr: 0x93E4, symBinAddr: 0x10000CE90, symSize: 0x90 }
  - { offsetInCU: 0x1AB60, offset: 0x1AB60, size: 0x8, addend: 0x0, symName: __ZNSt3__16vectorI3PinNS_9allocatorIS1_EEE24__emplace_back_slow_pathIJRS1_EEEvDpOT_, symObjAddr: 0x9474, symBinAddr: 0x10000CF20, symSize: 0xD8 }
  - { offsetInCU: 0x1ABC0, offset: 0x1ABC0, size: 0x8, addend: 0x0, symName: __ZNSt3__117__compressed_pairIP3PinNS_9allocatorIS1_EEE5firstB7v160006Ev, symObjAddr: 0x954C, symBinAddr: 0x10000CFF8, symSize: 0x24 }
  - { offsetInCU: 0x1ABE6, offset: 0x1ABE6, size: 0x8, addend: 0x0, symName: __ZNSt3__122__compressed_pair_elemIP3PinLi0ELb0EE5__getB7v160006Ev, symObjAddr: 0x9570, symBinAddr: 0x10000D01C, symSize: 0x14 }
  - { offsetInCU: 0x1AC25, offset: 0x1AC25, size: 0x8, addend: 0x0, symName: __ZNSt3__16vectorI3PinNS_9allocatorIS1_EEE21_ConstructTransactionC1B7v160006ERS4_m, symObjAddr: 0x9584, symBinAddr: 0x10000D030, symSize: 0x3C }
  - { offsetInCU: 0x1AC6D, offset: 0x1AC6D, size: 0x8, addend: 0x0, symName: __ZNSt3__116allocator_traitsINS_9allocatorI3PinEEE9constructB7v160006IS2_JRS2_EvEEvRS3_PT_DpOT0_, symObjAddr: 0x95C0, symBinAddr: 0x10000D06C, symSize: 0x34 }
  - { offsetInCU: 0x1ACC4, offset: 0x1ACC4, size: 0x8, addend: 0x0, symName: __ZNSt3__16vectorI3PinNS_9allocatorIS1_EEE21_ConstructTransactionD1B7v160006Ev, symObjAddr: 0x95F4, symBinAddr: 0x10000D0A0, symSize: 0x2C }
  - { offsetInCU: 0x1ACEE, offset: 0x1ACEE, size: 0x8, addend: 0x0, symName: __ZNSt3__16vectorI3PinNS_9allocatorIS1_EEE21_ConstructTransactionC2B7v160006ERS4_m, symObjAddr: 0x9620, symBinAddr: 0x10000D0CC, symSize: 0x44 }
  - { offsetInCU: 0x1AD36, offset: 0x1AD36, size: 0x8, addend: 0x0, symName: __ZNSt3__19allocatorI3PinE9constructB7v160006IS1_JRS1_EEEvPT_DpOT0_, symObjAddr: 0x9664, symBinAddr: 0x10000D110, symSize: 0x30 }
  - { offsetInCU: 0x1AD8C, offset: 0x1AD8C, size: 0x8, addend: 0x0, symName: __ZN3PinC1ERKS_, symObjAddr: 0x9694, symBinAddr: 0x10000D140, symSize: 0x34 }
  - { offsetInCU: 0x1ADC1, offset: 0x1ADC1, size: 0x8, addend: 0x0, symName: __ZN3PinC2ERKS_, symObjAddr: 0x96C8, symBinAddr: 0x10000D174, symSize: 0x48 }
  - { offsetInCU: 0x1ADF6, offset: 0x1ADF6, size: 0x8, addend: 0x0, symName: __ZNSt3__16vectorIiNS_9allocatorIiEEEC1ERKS3_, symObjAddr: 0x9710, symBinAddr: 0x10000D1BC, symSize: 0x34 }
  - { offsetInCU: 0x1AE31, offset: 0x1AE31, size: 0x8, addend: 0x0, symName: __ZNSt3__16vectorIiNS_9allocatorIiEEEC2ERKS3_, symObjAddr: 0x9744, symBinAddr: 0x10000D1F0, symSize: 0x110 }
  - { offsetInCU: 0x1AE90, offset: 0x1AE90, size: 0x8, addend: 0x0, symName: __ZNSt3__116allocator_traitsINS_9allocatorIiEEE37select_on_container_copy_constructionB7v160006IS2_vvEES2_RKS2_, symObjAddr: 0x9854, symBinAddr: 0x10000D300, symSize: 0x10 }
  - { offsetInCU: 0x1AEC4, offset: 0x1AEC4, size: 0x8, addend: 0x0, symName: __ZNSt3__117__compressed_pairIPiNS_9allocatorIiEEEC1B7v160006IDnS3_EEOT_OT0_, symObjAddr: 0x9864, symBinAddr: 0x10000D310, symSize: 0x3C }
  - { offsetInCU: 0x1AF1C, offset: 0x1AF1C, size: 0x8, addend: 0x0, symName: __ZNSt3__128__exception_guard_exceptionsINS_6vectorIiNS_9allocatorIiEEE16__destroy_vectorEE10__completeB7v160006Ev, symObjAddr: 0x98E0, symBinAddr: 0x10000D38C, symSize: 0x1C }
  - { offsetInCU: 0x1AF42, offset: 0x1AF42, size: 0x8, addend: 0x0, symName: __ZNSt3__128__exception_guard_exceptionsINS_6vectorIiNS_9allocatorIiEEE16__destroy_vectorEED1B7v160006Ev, symObjAddr: 0x98FC, symBinAddr: 0x10000D3A8, symSize: 0x2C }
  - { offsetInCU: 0x1AF6C, offset: 0x1AF6C, size: 0x8, addend: 0x0, symName: __ZNSt3__117__compressed_pairIPiNS_9allocatorIiEEEC2B7v160006IDnS3_EEOT_OT0_, symObjAddr: 0x9928, symBinAddr: 0x10000D3D4, symSize: 0x44 }
  - { offsetInCU: 0x1AFC4, offset: 0x1AFC4, size: 0x8, addend: 0x0, symName: __ZNSt3__122__compressed_pair_elemINS_9allocatorIiEELi1ELb1EEC2B7v160006IS2_vEEOT_, symObjAddr: 0x996C, symBinAddr: 0x10000D418, symSize: 0x18 }
  - { offsetInCU: 0x1B006, offset: 0x1B006, size: 0x8, addend: 0x0, symName: __ZNSt3__128__exception_guard_exceptionsINS_6vectorIiNS_9allocatorIiEEE16__destroy_vectorEEC1B7v160006ES5_, symObjAddr: 0x9984, symBinAddr: 0x10000D430, symSize: 0x34 }
  - { offsetInCU: 0x1B03E, offset: 0x1B03E, size: 0x8, addend: 0x0, symName: __ZNSt3__128__exception_guard_exceptionsINS_6vectorIiNS_9allocatorIiEEE16__destroy_vectorEEC2B7v160006ES5_, symObjAddr: 0x99B8, symBinAddr: 0x10000D464, symSize: 0x24 }
  - { offsetInCU: 0x1B076, offset: 0x1B076, size: 0x8, addend: 0x0, symName: __ZNSt3__128__exception_guard_exceptionsINS_6vectorIiNS_9allocatorIiEEE16__destroy_vectorEED2B7v160006Ev, symObjAddr: 0x99DC, symBinAddr: 0x10000D488, symSize: 0x50 }
  - { offsetInCU: 0x1B0A0, offset: 0x1B0A0, size: 0x8, addend: 0x0, symName: __ZNSt3__16vectorI3PinNS_9allocatorIS1_EEE21_ConstructTransactionD2B7v160006Ev, symObjAddr: 0x9A2C, symBinAddr: 0x10000D4D8, symSize: 0x20 }
  - { offsetInCU: 0x1B0CA, offset: 0x1B0CA, size: 0x8, addend: 0x0, symName: __ZNKSt3__16vectorI3PinNS_9allocatorIS1_EEE11__recommendB7v160006Em, symObjAddr: 0x9A4C, symBinAddr: 0x10000D4F8, symSize: 0xB4 }
  - { offsetInCU: 0x1B11F, offset: 0x1B11F, size: 0x8, addend: 0x0, symName: __ZNSt3__114__split_bufferI3PinRNS_9allocatorIS1_EEEC1EmmS4_, symObjAddr: 0x9B00, symBinAddr: 0x10000D5AC, symSize: 0x44 }
  - { offsetInCU: 0x1B175, offset: 0x1B175, size: 0x8, addend: 0x0, symName: __ZNSt3__114__split_bufferI3PinRNS_9allocatorIS1_EEED1Ev, symObjAddr: 0x9C5C, symBinAddr: 0x10000D708, symSize: 0x2C }
  - { offsetInCU: 0x1B1A1, offset: 0x1B1A1, size: 0x8, addend: 0x0, symName: __ZNKSt3__16vectorI3PinNS_9allocatorIS1_EEE8max_sizeEv, symObjAddr: 0x9C88, symBinAddr: 0x10000D734, symSize: 0x60 }
  - { offsetInCU: 0x1B1C9, offset: 0x1B1C9, size: 0x8, addend: 0x0, symName: __ZNKSt3__16vectorI3PinNS_9allocatorIS1_EEE20__throw_length_errorB7v160006Ev, symObjAddr: 0x9CE8, symBinAddr: 0x10000D794, symSize: 0x1C }
  - { offsetInCU: 0x1B1F9, offset: 0x1B1F9, size: 0x8, addend: 0x0, symName: __ZNSt3__116allocator_traitsINS_9allocatorI3PinEEE8max_sizeB7v160006IS3_vEEmRKS3_, symObjAddr: 0x9D04, symBinAddr: 0x10000D7B0, symSize: 0x24 }
  - { offsetInCU: 0x1B227, offset: 0x1B227, size: 0x8, addend: 0x0, symName: __ZNKSt3__16vectorI3PinNS_9allocatorIS1_EEE7__allocB7v160006Ev, symObjAddr: 0x9D28, symBinAddr: 0x10000D7D4, symSize: 0x28 }
  - { offsetInCU: 0x1B24D, offset: 0x1B24D, size: 0x8, addend: 0x0, symName: __ZNKSt3__19allocatorI3PinE8max_sizeB7v160006Ev, symObjAddr: 0x9D50, symBinAddr: 0x10000D7FC, symSize: 0x14 }
  - { offsetInCU: 0x1B273, offset: 0x1B273, size: 0x8, addend: 0x0, symName: __ZNKSt3__117__compressed_pairIP3PinNS_9allocatorIS1_EEE6secondB7v160006Ev, symObjAddr: 0x9D64, symBinAddr: 0x10000D810, symSize: 0x24 }
  - { offsetInCU: 0x1B299, offset: 0x1B299, size: 0x8, addend: 0x0, symName: __ZNKSt3__122__compressed_pair_elemINS_9allocatorI3PinEELi1ELb1EE5__getB7v160006Ev, symObjAddr: 0x9D88, symBinAddr: 0x10000D834, symSize: 0x14 }
  - { offsetInCU: 0x1B2BF, offset: 0x1B2BF, size: 0x8, addend: 0x0, symName: __ZNSt3__114__split_bufferI3PinRNS_9allocatorIS1_EEEC2EmmS4_, symObjAddr: 0x9D9C, symBinAddr: 0x10000D848, symSize: 0xD4 }
  - { offsetInCU: 0x1B332, offset: 0x1B332, size: 0x8, addend: 0x0, symName: __ZNSt3__117__compressed_pairIP3PinRNS_9allocatorIS1_EEEC1B7v160006IDnS5_EEOT_OT0_, symObjAddr: 0x9E70, symBinAddr: 0x10000D91C, symSize: 0x3C }
  - { offsetInCU: 0x1B38A, offset: 0x1B38A, size: 0x8, addend: 0x0, symName: __ZNSt3__114__split_bufferI3PinRNS_9allocatorIS1_EEE7__allocB7v160006Ev, symObjAddr: 0x9EEC, symBinAddr: 0x10000D998, symSize: 0x28 }
  - { offsetInCU: 0x1B3B0, offset: 0x1B3B0, size: 0x8, addend: 0x0, symName: __ZNSt3__114__split_bufferI3PinRNS_9allocatorIS1_EEE9__end_capB7v160006Ev, symObjAddr: 0x9F14, symBinAddr: 0x10000D9C0, symSize: 0x28 }
  - { offsetInCU: 0x1B3D6, offset: 0x1B3D6, size: 0x8, addend: 0x0, symName: __ZNSt3__117__compressed_pairIP3PinRNS_9allocatorIS1_EEEC2B7v160006IDnS5_EEOT_OT0_, symObjAddr: 0x9F3C, symBinAddr: 0x10000D9E8, symSize: 0x48 }
  - { offsetInCU: 0x1B42E, offset: 0x1B42E, size: 0x8, addend: 0x0, symName: __ZNSt3__122__compressed_pair_elemIRNS_9allocatorI3PinEELi1ELb0EEC2B7v160006IS4_vEEOT_, symObjAddr: 0x9F84, symBinAddr: 0x10000DA30, symSize: 0x20 }
  - { offsetInCU: 0x1B470, offset: 0x1B470, size: 0x8, addend: 0x0, symName: __ZNSt3__19allocatorI3PinE8allocateB7v160006Em, symObjAddr: 0x9FA4, symBinAddr: 0x10000DA50, symSize: 0x58 }
  - { offsetInCU: 0x1B4A4, offset: 0x1B4A4, size: 0x8, addend: 0x0, symName: __ZNSt3__117__compressed_pairIP3PinRNS_9allocatorIS1_EEE6secondB7v160006Ev, symObjAddr: 0x9FFC, symBinAddr: 0x10000DAA8, symSize: 0x28 }
  - { offsetInCU: 0x1B4CA, offset: 0x1B4CA, size: 0x8, addend: 0x0, symName: __ZNSt3__122__compressed_pair_elemIRNS_9allocatorI3PinEELi1ELb0EE5__getB7v160006Ev, symObjAddr: 0xA024, symBinAddr: 0x10000DAD0, symSize: 0x18 }
  - { offsetInCU: 0x1B4F0, offset: 0x1B4F0, size: 0x8, addend: 0x0, symName: __ZNSt3__117__compressed_pairIP3PinRNS_9allocatorIS1_EEE5firstB7v160006Ev, symObjAddr: 0xA03C, symBinAddr: 0x10000DAE8, symSize: 0x24 }
  - { offsetInCU: 0x1B516, offset: 0x1B516, size: 0x8, addend: 0x0, symName: __ZNSt3__116reverse_iteratorIP3PinEC1B7v160006ES2_, symObjAddr: 0xA18C, symBinAddr: 0x10000DC38, symSize: 0x34 }
  - { offsetInCU: 0x1B54E, offset: 0x1B54E, size: 0x8, addend: 0x0, symName: __ZNKSt3__116reverse_iteratorIP3PinE4baseB7v160006Ev, symObjAddr: 0xA1C0, symBinAddr: 0x10000DC6C, symSize: 0x18 }
  - { offsetInCU: 0x1B574, offset: 0x1B574, size: 0x8, addend: 0x0, symName: __ZNKSt3__16vectorI3PinNS_9allocatorIS1_EEE14__annotate_newB7v160006Em, symObjAddr: 0xA214, symBinAddr: 0x10000DCC0, symSize: 0xAC }
  - { offsetInCU: 0x1B5A9, offset: 0x1B5A9, size: 0x8, addend: 0x0, symName: __ZNSt3__129_AllocatorDestroyRangeReverseINS_9allocatorI3PinEENS_16reverse_iteratorIPS2_EEEC1B7v160006ERS3_RS6_S9_, symObjAddr: 0xA31C, symBinAddr: 0x10000DDC8, symSize: 0x44 }
  - { offsetInCU: 0x1B605, offset: 0x1B605, size: 0x8, addend: 0x0, symName: __ZNSt3__116allocator_traitsINS_9allocatorI3PinEEE9constructB7v160006IS2_JS2_EvEEvRS3_PT_DpOT0_, symObjAddr: 0xA3A8, symBinAddr: 0x10000DE54, symSize: 0x34 }
  - { offsetInCU: 0x1B65C, offset: 0x1B65C, size: 0x8, addend: 0x0, symName: __ZNKSt3__116reverse_iteratorIP3PinEdeB7v160006Ev, symObjAddr: 0xA400, symBinAddr: 0x10000DEAC, symSize: 0x28 }
  - { offsetInCU: 0x1B690, offset: 0x1B690, size: 0x8, addend: 0x0, symName: __ZNSt3__116reverse_iteratorIP3PinEppB7v160006Ev, symObjAddr: 0xA428, symBinAddr: 0x10000DED4, symSize: 0x20 }
  - { offsetInCU: 0x1B6B6, offset: 0x1B6B6, size: 0x8, addend: 0x0, symName: __ZNSt3__128__exception_guard_exceptionsINS_29_AllocatorDestroyRangeReverseINS_9allocatorI3PinEENS_16reverse_iteratorIPS3_EEEEE10__completeB7v160006Ev, symObjAddr: 0xA448, symBinAddr: 0x10000DEF4, symSize: 0x1C }
  - { offsetInCU: 0x1B6DC, offset: 0x1B6DC, size: 0x8, addend: 0x0, symName: __ZNSt3__128__exception_guard_exceptionsINS_29_AllocatorDestroyRangeReverseINS_9allocatorI3PinEENS_16reverse_iteratorIPS3_EEEEED1B7v160006Ev, symObjAddr: 0xA464, symBinAddr: 0x10000DF10, symSize: 0x2C }
  - { offsetInCU: 0x1B706, offset: 0x1B706, size: 0x8, addend: 0x0, symName: __ZNSt3__128__exception_guard_exceptionsINS_29_AllocatorDestroyRangeReverseINS_9allocatorI3PinEENS_16reverse_iteratorIPS3_EEEEEC1B7v160006ES8_, symObjAddr: 0xA490, symBinAddr: 0x10000DF3C, symSize: 0x34 }
  - { offsetInCU: 0x1B73F, offset: 0x1B73F, size: 0x8, addend: 0x0, symName: __ZNSt3__128__exception_guard_exceptionsINS_29_AllocatorDestroyRangeReverseINS_9allocatorI3PinEENS_16reverse_iteratorIPS3_EEEEEC2B7v160006ES8_, symObjAddr: 0xA4C4, symBinAddr: 0x10000DF70, symSize: 0x30 }
  - { offsetInCU: 0x1B778, offset: 0x1B778, size: 0x8, addend: 0x0, symName: __ZNSt3__129_AllocatorDestroyRangeReverseINS_9allocatorI3PinEENS_16reverse_iteratorIPS2_EEEC2B7v160006ERS3_RS6_S9_, symObjAddr: 0xA4F4, symBinAddr: 0x10000DFA0, symSize: 0x38 }
  - { offsetInCU: 0x1B7CF, offset: 0x1B7CF, size: 0x8, addend: 0x0, symName: __ZNSt3__19allocatorI3PinE9constructB7v160006IS1_JS1_EEEvPT_DpOT0_, symObjAddr: 0xA52C, symBinAddr: 0x10000DFD8, symSize: 0x30 }
  - { offsetInCU: 0x1B825, offset: 0x1B825, size: 0x8, addend: 0x0, symName: __ZN3PinC1EOS_, symObjAddr: 0xA55C, symBinAddr: 0x10000E008, symSize: 0x34 }
  - { offsetInCU: 0x1B85A, offset: 0x1B85A, size: 0x8, addend: 0x0, symName: __ZN3PinC2EOS_, symObjAddr: 0xA590, symBinAddr: 0x10000E03C, symSize: 0x48 }
  - { offsetInCU: 0x1B88F, offset: 0x1B88F, size: 0x8, addend: 0x0, symName: __ZNSt3__16vectorIiNS_9allocatorIiEEEC1B7v160006EOS3_, symObjAddr: 0xA5D8, symBinAddr: 0x10000E084, symSize: 0x34 }
  - { offsetInCU: 0x1B8CA, offset: 0x1B8CA, size: 0x8, addend: 0x0, symName: __ZNSt3__16vectorIiNS_9allocatorIiEEEC2B7v160006EOS3_, symObjAddr: 0xA60C, symBinAddr: 0x10000E0B8, symSize: 0xDC }
  - { offsetInCU: 0x1B90A, offset: 0x1B90A, size: 0x8, addend: 0x0, symName: __ZNSt3__119__to_address_helperINS_16reverse_iteratorIP3PinEEvE6__callB7v160006ERKS4_, symObjAddr: 0xA6FC, symBinAddr: 0x10000E1A8, symSize: 0x38 }
  - { offsetInCU: 0x1B92D, offset: 0x1B92D, size: 0x8, addend: 0x0, symName: __ZNKSt3__116reverse_iteratorIP3PinEptB7v160006Ev, symObjAddr: 0xA734, symBinAddr: 0x10000E1E0, symSize: 0x24 }
  - { offsetInCU: 0x1B953, offset: 0x1B953, size: 0x8, addend: 0x0, symName: __ZNSt3__128__exception_guard_exceptionsINS_29_AllocatorDestroyRangeReverseINS_9allocatorI3PinEENS_16reverse_iteratorIPS3_EEEEED2B7v160006Ev, symObjAddr: 0xA758, symBinAddr: 0x10000E204, symSize: 0x50 }
  - { offsetInCU: 0x1B97D, offset: 0x1B97D, size: 0x8, addend: 0x0, symName: __ZNKSt3__129_AllocatorDestroyRangeReverseINS_9allocatorI3PinEENS_16reverse_iteratorIPS2_EEEclB7v160006Ev, symObjAddr: 0xA7A8, symBinAddr: 0x10000E254, symSize: 0xB4 }
  - { offsetInCU: 0x1B9A4, offset: 0x1B9A4, size: 0x8, addend: 0x0, symName: __ZNSt3__116reverse_iteratorINS0_IP3PinEEEC1B7v160006ES3_, symObjAddr: 0xA8CC, symBinAddr: 0x10000E378, symSize: 0x3C }
  - { offsetInCU: 0x1B9DC, offset: 0x1B9DC, size: 0x8, addend: 0x0, symName: __ZNSt3__116reverse_iteratorINS0_IP3PinEEEppB7v160006Ev, symObjAddr: 0xA98C, symBinAddr: 0x10000E438, symSize: 0x30 }
  - { offsetInCU: 0x1BA02, offset: 0x1BA02, size: 0x8, addend: 0x0, symName: __ZNKSt3__116reverse_iteratorINS0_IP3PinEEE4baseB7v160006Ev, symObjAddr: 0xA9BC, symBinAddr: 0x10000E468, symSize: 0x24 }
  - { offsetInCU: 0x1BA2D, offset: 0x1BA2D, size: 0x8, addend: 0x0, symName: __ZNSt3__119__to_address_helperINS_16reverse_iteratorINS1_IP3PinEEEEvE6__callB7v160006ERKS5_, symObjAddr: 0xA9E0, symBinAddr: 0x10000E48C, symSize: 0x38 }
  - { offsetInCU: 0x1BA50, offset: 0x1BA50, size: 0x8, addend: 0x0, symName: __ZNKSt3__116reverse_iteratorINS0_IP3PinEEEptB7v160006Ev, symObjAddr: 0xAA18, symBinAddr: 0x10000E4C4, symSize: 0x24 }
  - { offsetInCU: 0x1BA76, offset: 0x1BA76, size: 0x8, addend: 0x0, symName: __ZNKSt3__116reverse_iteratorINS0_IP3PinEEEdeB7v160006Ev, symObjAddr: 0xAA3C, symBinAddr: 0x10000E4E8, symSize: 0x34 }
  - { offsetInCU: 0x1BAAA, offset: 0x1BAAA, size: 0x8, addend: 0x0, symName: __ZNSt3__116reverse_iteratorIP3PinEmmB7v160006Ev, symObjAddr: 0xAA70, symBinAddr: 0x10000E51C, symSize: 0x20 }
  - { offsetInCU: 0x1BAD0, offset: 0x1BAD0, size: 0x8, addend: 0x0, symName: __ZNSt3__116reverse_iteratorINS0_IP3PinEEEC2B7v160006ES3_, symObjAddr: 0xAA90, symBinAddr: 0x10000E53C, symSize: 0x2C }
  - { offsetInCU: 0x1BB08, offset: 0x1BB08, size: 0x8, addend: 0x0, symName: __ZNSt3__116reverse_iteratorIP3PinEC2B7v160006ES2_, symObjAddr: 0xAABC, symBinAddr: 0x10000E568, symSize: 0x28 }
  - { offsetInCU: 0x1BB40, offset: 0x1BB40, size: 0x8, addend: 0x0, symName: __ZNSt3__114__split_bufferI3PinRNS_9allocatorIS1_EEED2Ev, symObjAddr: 0xAAE4, symBinAddr: 0x10000E590, symSize: 0x8C }
  - { offsetInCU: 0x1BB6C, offset: 0x1BB6C, size: 0x8, addend: 0x0, symName: __ZNSt3__114__split_bufferI3PinRNS_9allocatorIS1_EEE5clearB7v160006Ev, symObjAddr: 0xAB70, symBinAddr: 0x10000E61C, symSize: 0x28 }
  - { offsetInCU: 0x1BB92, offset: 0x1BB92, size: 0x8, addend: 0x0, symName: __ZNKSt3__114__split_bufferI3PinRNS_9allocatorIS1_EEE8capacityB7v160006Ev, symObjAddr: 0xAB98, symBinAddr: 0x10000E644, symSize: 0x40 }
  - { offsetInCU: 0x1BBB8, offset: 0x1BBB8, size: 0x8, addend: 0x0, symName: __ZNSt3__114__split_bufferI3PinRNS_9allocatorIS1_EEE17__destruct_at_endB7v160006EPS1_, symObjAddr: 0xABD8, symBinAddr: 0x10000E684, symSize: 0x2C }
  - { offsetInCU: 0x1BBEC, offset: 0x1BBEC, size: 0x8, addend: 0x0, symName: __ZNSt3__114__split_bufferI3PinRNS_9allocatorIS1_EEE17__destruct_at_endB7v160006EPS1_NS_17integral_constantIbLb0EEE, symObjAddr: 0xAC04, symBinAddr: 0x10000E6B0, symSize: 0x80 }
  - { offsetInCU: 0x1BC2C, offset: 0x1BC2C, size: 0x8, addend: 0x0, symName: __ZNKSt3__114__split_bufferI3PinRNS_9allocatorIS1_EEE9__end_capB7v160006Ev, symObjAddr: 0xAC84, symBinAddr: 0x10000E730, symSize: 0x28 }
  - { offsetInCU: 0x1BC52, offset: 0x1BC52, size: 0x8, addend: 0x0, symName: __ZNKSt3__117__compressed_pairIP3PinRNS_9allocatorIS1_EEE5firstB7v160006Ev, symObjAddr: 0xACAC, symBinAddr: 0x10000E758, symSize: 0x24 }
  - { offsetInCU: 0x1BC78, offset: 0x1BC78, size: 0x8, addend: 0x0, symName: __ZNSt3__16vectorI3NetNS_9allocatorIS1_EEE9__end_capB7v160006Ev, symObjAddr: 0xACD0, symBinAddr: 0x10000E77C, symSize: 0x28 }
  - { offsetInCU: 0x1BC9E, offset: 0x1BC9E, size: 0x8, addend: 0x0, symName: __ZNSt3__16vectorI3NetNS_9allocatorIS1_EEE22__construct_one_at_endB7v160006IJRS1_EEEvDpOT_, symObjAddr: 0xACF8, symBinAddr: 0x10000E7A4, symSize: 0x90 }
  - { offsetInCU: 0x1BCED, offset: 0x1BCED, size: 0x8, addend: 0x0, symName: __ZNSt3__16vectorI3NetNS_9allocatorIS1_EEE24__emplace_back_slow_pathIJRS1_EEEvDpOT_, symObjAddr: 0xAD88, symBinAddr: 0x10000E834, symSize: 0xD8 }
  - { offsetInCU: 0x1BD4D, offset: 0x1BD4D, size: 0x8, addend: 0x0, symName: __ZNSt3__117__compressed_pairIP3NetNS_9allocatorIS1_EEE5firstB7v160006Ev, symObjAddr: 0xAE60, symBinAddr: 0x10000E90C, symSize: 0x24 }
  - { offsetInCU: 0x1BD73, offset: 0x1BD73, size: 0x8, addend: 0x0, symName: __ZNSt3__122__compressed_pair_elemIP3NetLi0ELb0EE5__getB7v160006Ev, symObjAddr: 0xAE84, symBinAddr: 0x10000E930, symSize: 0x14 }
  - { offsetInCU: 0x1BDB2, offset: 0x1BDB2, size: 0x8, addend: 0x0, symName: __ZNSt3__16vectorI3NetNS_9allocatorIS1_EEE21_ConstructTransactionC1B7v160006ERS4_m, symObjAddr: 0xAE98, symBinAddr: 0x10000E944, symSize: 0x3C }
  - { offsetInCU: 0x1BDFA, offset: 0x1BDFA, size: 0x8, addend: 0x0, symName: __ZNSt3__116allocator_traitsINS_9allocatorI3NetEEE9constructB7v160006IS2_JRS2_EvEEvRS3_PT_DpOT0_, symObjAddr: 0xAED4, symBinAddr: 0x10000E980, symSize: 0x34 }
  - { offsetInCU: 0x1BE51, offset: 0x1BE51, size: 0x8, addend: 0x0, symName: __ZNSt3__16vectorI3NetNS_9allocatorIS1_EEE21_ConstructTransactionD1B7v160006Ev, symObjAddr: 0xAF08, symBinAddr: 0x10000E9B4, symSize: 0x2C }
  - { offsetInCU: 0x1BE7B, offset: 0x1BE7B, size: 0x8, addend: 0x0, symName: __ZNSt3__16vectorI3NetNS_9allocatorIS1_EEE21_ConstructTransactionC2B7v160006ERS4_m, symObjAddr: 0xAF34, symBinAddr: 0x10000E9E0, symSize: 0x4C }
  - { offsetInCU: 0x1BEC3, offset: 0x1BEC3, size: 0x8, addend: 0x0, symName: __ZNSt3__19allocatorI3NetE9constructB7v160006IS1_JRS1_EEEvPT_DpOT0_, symObjAddr: 0xAF80, symBinAddr: 0x10000EA2C, symSize: 0x30 }
  - { offsetInCU: 0x1BF19, offset: 0x1BF19, size: 0x8, addend: 0x0, symName: __ZN3NetC1ERKS_, symObjAddr: 0xAFB0, symBinAddr: 0x10000EA5C, symSize: 0x34 }
  - { offsetInCU: 0x1BF4E, offset: 0x1BF4E, size: 0x8, addend: 0x0, symName: __ZN3NetC2ERKS_, symObjAddr: 0xAFE4, symBinAddr: 0x10000EA90, symSize: 0x88 }
  - { offsetInCU: 0x1BF83, offset: 0x1BF83, size: 0x8, addend: 0x0, symName: __ZNSt3__16vectorI3NetNS_9allocatorIS1_EEE21_ConstructTransactionD2B7v160006Ev, symObjAddr: 0xB06C, symBinAddr: 0x10000EB18, symSize: 0x20 }
  - { offsetInCU: 0x1BFAD, offset: 0x1BFAD, size: 0x8, addend: 0x0, symName: __ZNKSt3__16vectorI3NetNS_9allocatorIS1_EEE11__recommendB7v160006Em, symObjAddr: 0xB08C, symBinAddr: 0x10000EB38, symSize: 0xB4 }
  - { offsetInCU: 0x1C002, offset: 0x1C002, size: 0x8, addend: 0x0, symName: __ZNSt3__114__split_bufferI3NetRNS_9allocatorIS1_EEEC1EmmS4_, symObjAddr: 0xB140, symBinAddr: 0x10000EBEC, symSize: 0x44 }
  - { offsetInCU: 0x1C058, offset: 0x1C058, size: 0x8, addend: 0x0, symName: __ZNSt3__114__split_bufferI3NetRNS_9allocatorIS1_EEED1Ev, symObjAddr: 0xB29C, symBinAddr: 0x10000ED48, symSize: 0x2C }
  - { offsetInCU: 0x1C084, offset: 0x1C084, size: 0x8, addend: 0x0, symName: __ZNKSt3__16vectorI3NetNS_9allocatorIS1_EEE8max_sizeEv, symObjAddr: 0xB2C8, symBinAddr: 0x10000ED74, symSize: 0x60 }
  - { offsetInCU: 0x1C0AC, offset: 0x1C0AC, size: 0x8, addend: 0x0, symName: __ZNKSt3__16vectorI3NetNS_9allocatorIS1_EEE20__throw_length_errorB7v160006Ev, symObjAddr: 0xB328, symBinAddr: 0x10000EDD4, symSize: 0x1C }
  - { offsetInCU: 0x1C0DC, offset: 0x1C0DC, size: 0x8, addend: 0x0, symName: __ZNSt3__116allocator_traitsINS_9allocatorI3NetEEE8max_sizeB7v160006IS3_vEEmRKS3_, symObjAddr: 0xB344, symBinAddr: 0x10000EDF0, symSize: 0x24 }
  - { offsetInCU: 0x1C10A, offset: 0x1C10A, size: 0x8, addend: 0x0, symName: __ZNKSt3__16vectorI3NetNS_9allocatorIS1_EEE7__allocB7v160006Ev, symObjAddr: 0xB368, symBinAddr: 0x10000EE14, symSize: 0x28 }
  - { offsetInCU: 0x1C130, offset: 0x1C130, size: 0x8, addend: 0x0, symName: __ZNKSt3__19allocatorI3NetE8max_sizeB7v160006Ev, symObjAddr: 0xB390, symBinAddr: 0x10000EE3C, symSize: 0x20 }
  - { offsetInCU: 0x1C156, offset: 0x1C156, size: 0x8, addend: 0x0, symName: __ZNKSt3__117__compressed_pairIP3NetNS_9allocatorIS1_EEE6secondB7v160006Ev, symObjAddr: 0xB3B0, symBinAddr: 0x10000EE5C, symSize: 0x24 }
  - { offsetInCU: 0x1C17C, offset: 0x1C17C, size: 0x8, addend: 0x0, symName: __ZNKSt3__122__compressed_pair_elemINS_9allocatorI3NetEELi1ELb1EE5__getB7v160006Ev, symObjAddr: 0xB3D4, symBinAddr: 0x10000EE80, symSize: 0x14 }
  - { offsetInCU: 0x1C1A2, offset: 0x1C1A2, size: 0x8, addend: 0x0, symName: __ZNSt3__114__split_bufferI3NetRNS_9allocatorIS1_EEEC2EmmS4_, symObjAddr: 0xB3E8, symBinAddr: 0x10000EE94, symSize: 0xE0 }
  - { offsetInCU: 0x1C215, offset: 0x1C215, size: 0x8, addend: 0x0, symName: __ZNSt3__117__compressed_pairIP3NetRNS_9allocatorIS1_EEEC1B7v160006IDnS5_EEOT_OT0_, symObjAddr: 0xB4C8, symBinAddr: 0x10000EF74, symSize: 0x3C }
  - { offsetInCU: 0x1C26D, offset: 0x1C26D, size: 0x8, addend: 0x0, symName: __ZNSt3__114__split_bufferI3NetRNS_9allocatorIS1_EEE7__allocB7v160006Ev, symObjAddr: 0xB544, symBinAddr: 0x10000EFF0, symSize: 0x28 }
  - { offsetInCU: 0x1C293, offset: 0x1C293, size: 0x8, addend: 0x0, symName: __ZNSt3__114__split_bufferI3NetRNS_9allocatorIS1_EEE9__end_capB7v160006Ev, symObjAddr: 0xB56C, symBinAddr: 0x10000F018, symSize: 0x28 }
  - { offsetInCU: 0x1C2B9, offset: 0x1C2B9, size: 0x8, addend: 0x0, symName: __ZNSt3__117__compressed_pairIP3NetRNS_9allocatorIS1_EEEC2B7v160006IDnS5_EEOT_OT0_, symObjAddr: 0xB594, symBinAddr: 0x10000F040, symSize: 0x48 }
  - { offsetInCU: 0x1C311, offset: 0x1C311, size: 0x8, addend: 0x0, symName: __ZNSt3__122__compressed_pair_elemIRNS_9allocatorI3NetEELi1ELb0EEC2B7v160006IS4_vEEOT_, symObjAddr: 0xB5DC, symBinAddr: 0x10000F088, symSize: 0x20 }
  - { offsetInCU: 0x1C353, offset: 0x1C353, size: 0x8, addend: 0x0, symName: __ZNSt3__19allocatorI3NetE8allocateB7v160006Em, symObjAddr: 0xB5FC, symBinAddr: 0x10000F0A8, symSize: 0x5C }
  - { offsetInCU: 0x1C387, offset: 0x1C387, size: 0x8, addend: 0x0, symName: __ZNSt3__117__compressed_pairIP3NetRNS_9allocatorIS1_EEE6secondB7v160006Ev, symObjAddr: 0xB658, symBinAddr: 0x10000F104, symSize: 0x28 }
  - { offsetInCU: 0x1C3AD, offset: 0x1C3AD, size: 0x8, addend: 0x0, symName: __ZNSt3__122__compressed_pair_elemIRNS_9allocatorI3NetEELi1ELb0EE5__getB7v160006Ev, symObjAddr: 0xB680, symBinAddr: 0x10000F12C, symSize: 0x18 }
  - { offsetInCU: 0x1C3D3, offset: 0x1C3D3, size: 0x8, addend: 0x0, symName: __ZNSt3__117__compressed_pairIP3NetRNS_9allocatorIS1_EEE5firstB7v160006Ev, symObjAddr: 0xB698, symBinAddr: 0x10000F144, symSize: 0x24 }
  - { offsetInCU: 0x1C3F9, offset: 0x1C3F9, size: 0x8, addend: 0x0, symName: __ZNSt3__116reverse_iteratorIP3NetEC1B7v160006ES2_, symObjAddr: 0xB7E8, symBinAddr: 0x10000F294, symSize: 0x34 }
  - { offsetInCU: 0x1C431, offset: 0x1C431, size: 0x8, addend: 0x0, symName: __ZNKSt3__116reverse_iteratorIP3NetE4baseB7v160006Ev, symObjAddr: 0xB81C, symBinAddr: 0x10000F2C8, symSize: 0x18 }
  - { offsetInCU: 0x1C457, offset: 0x1C457, size: 0x8, addend: 0x0, symName: __ZNKSt3__16vectorI3NetNS_9allocatorIS1_EEE14__annotate_newB7v160006Em, symObjAddr: 0xB870, symBinAddr: 0x10000F31C, symSize: 0xC8 }
  - { offsetInCU: 0x1C48C, offset: 0x1C48C, size: 0x8, addend: 0x0, symName: __ZNSt3__129_AllocatorDestroyRangeReverseINS_9allocatorI3NetEENS_16reverse_iteratorIPS2_EEEC1B7v160006ERS3_RS6_S9_, symObjAddr: 0xB994, symBinAddr: 0x10000F440, symSize: 0x44 }
  - { offsetInCU: 0x1C4E8, offset: 0x1C4E8, size: 0x8, addend: 0x0, symName: __ZNSt3__116allocator_traitsINS_9allocatorI3NetEEE9constructB7v160006IS2_JS2_EvEEvRS3_PT_DpOT0_, symObjAddr: 0xBA20, symBinAddr: 0x10000F4CC, symSize: 0x34 }
  - { offsetInCU: 0x1C53F, offset: 0x1C53F, size: 0x8, addend: 0x0, symName: __ZNKSt3__116reverse_iteratorIP3NetEdeB7v160006Ev, symObjAddr: 0xBA78, symBinAddr: 0x10000F524, symSize: 0x28 }
  - { offsetInCU: 0x1C573, offset: 0x1C573, size: 0x8, addend: 0x0, symName: __ZNSt3__116reverse_iteratorIP3NetEppB7v160006Ev, symObjAddr: 0xBAA0, symBinAddr: 0x10000F54C, symSize: 0x20 }
  - { offsetInCU: 0x1C599, offset: 0x1C599, size: 0x8, addend: 0x0, symName: __ZNSt3__128__exception_guard_exceptionsINS_29_AllocatorDestroyRangeReverseINS_9allocatorI3NetEENS_16reverse_iteratorIPS3_EEEEE10__completeB7v160006Ev, symObjAddr: 0xBAC0, symBinAddr: 0x10000F56C, symSize: 0x1C }
  - { offsetInCU: 0x1C5BF, offset: 0x1C5BF, size: 0x8, addend: 0x0, symName: __ZNSt3__128__exception_guard_exceptionsINS_29_AllocatorDestroyRangeReverseINS_9allocatorI3NetEENS_16reverse_iteratorIPS3_EEEEED1B7v160006Ev, symObjAddr: 0xBADC, symBinAddr: 0x10000F588, symSize: 0x2C }
  - { offsetInCU: 0x1C5E9, offset: 0x1C5E9, size: 0x8, addend: 0x0, symName: __ZNSt3__128__exception_guard_exceptionsINS_29_AllocatorDestroyRangeReverseINS_9allocatorI3NetEENS_16reverse_iteratorIPS3_EEEEEC1B7v160006ES8_, symObjAddr: 0xBB08, symBinAddr: 0x10000F5B4, symSize: 0x34 }
  - { offsetInCU: 0x1C622, offset: 0x1C622, size: 0x8, addend: 0x0, symName: __ZNSt3__128__exception_guard_exceptionsINS_29_AllocatorDestroyRangeReverseINS_9allocatorI3NetEENS_16reverse_iteratorIPS3_EEEEEC2B7v160006ES8_, symObjAddr: 0xBB3C, symBinAddr: 0x10000F5E8, symSize: 0x30 }
  - { offsetInCU: 0x1C65B, offset: 0x1C65B, size: 0x8, addend: 0x0, symName: __ZNSt3__129_AllocatorDestroyRangeReverseINS_9allocatorI3NetEENS_16reverse_iteratorIPS2_EEEC2B7v160006ERS3_RS6_S9_, symObjAddr: 0xBB6C, symBinAddr: 0x10000F618, symSize: 0x38 }
  - { offsetInCU: 0x1C6B2, offset: 0x1C6B2, size: 0x8, addend: 0x0, symName: __ZNSt3__19allocatorI3NetE9constructB7v160006IS1_JS1_EEEvPT_DpOT0_, symObjAddr: 0xBBA4, symBinAddr: 0x10000F650, symSize: 0x30 }
  - { offsetInCU: 0x1C708, offset: 0x1C708, size: 0x8, addend: 0x0, symName: __ZN3NetC1EOS_, symObjAddr: 0xBBD4, symBinAddr: 0x10000F680, symSize: 0x34 }
  - { offsetInCU: 0x1C73D, offset: 0x1C73D, size: 0x8, addend: 0x0, symName: __ZN3NetC2EOS_, symObjAddr: 0xBC08, symBinAddr: 0x10000F6B4, symSize: 0x5C }
  - { offsetInCU: 0x1C772, offset: 0x1C772, size: 0x8, addend: 0x0, symName: __ZNSt3__112basic_stringIcNS_11char_traitsIcEENS_9allocatorIcEEEC1B7v160006EOS5_, symObjAddr: 0xBC64, symBinAddr: 0x10000F710, symSize: 0x34 }
  - { offsetInCU: 0x1C7AB, offset: 0x1C7AB, size: 0x8, addend: 0x0, symName: __ZNSt3__112basic_stringIcNS_11char_traitsIcEENS_9allocatorIcEEEC2B7v160006EOS5_, symObjAddr: 0xBC98, symBinAddr: 0x10000F744, symSize: 0x80 }
  - { offsetInCU: 0x1C7E9, offset: 0x1C7E9, size: 0x8, addend: 0x0, symName: __ZNSt3__119__to_address_helperINS_16reverse_iteratorIP3NetEEvE6__callB7v160006ERKS4_, symObjAddr: 0xBD2C, symBinAddr: 0x10000F7D8, symSize: 0x38 }
  - { offsetInCU: 0x1C80C, offset: 0x1C80C, size: 0x8, addend: 0x0, symName: __ZNKSt3__116reverse_iteratorIP3NetEptB7v160006Ev, symObjAddr: 0xBD64, symBinAddr: 0x10000F810, symSize: 0x24 }
  - { offsetInCU: 0x1C832, offset: 0x1C832, size: 0x8, addend: 0x0, symName: __ZNSt3__128__exception_guard_exceptionsINS_29_AllocatorDestroyRangeReverseINS_9allocatorI3NetEENS_16reverse_iteratorIPS3_EEEEED2B7v160006Ev, symObjAddr: 0xBD88, symBinAddr: 0x10000F834, symSize: 0x50 }
  - { offsetInCU: 0x1C85C, offset: 0x1C85C, size: 0x8, addend: 0x0, symName: __ZNKSt3__129_AllocatorDestroyRangeReverseINS_9allocatorI3NetEENS_16reverse_iteratorIPS2_EEEclB7v160006Ev, symObjAddr: 0xBDD8, symBinAddr: 0x10000F884, symSize: 0xB4 }
  - { offsetInCU: 0x1C883, offset: 0x1C883, size: 0x8, addend: 0x0, symName: __ZNSt3__116reverse_iteratorINS0_IP3NetEEEC1B7v160006ES3_, symObjAddr: 0xBEFC, symBinAddr: 0x10000F9A8, symSize: 0x3C }
  - { offsetInCU: 0x1C8BB, offset: 0x1C8BB, size: 0x8, addend: 0x0, symName: __ZNSt3__116reverse_iteratorINS0_IP3NetEEEppB7v160006Ev, symObjAddr: 0xBFBC, symBinAddr: 0x10000FA68, symSize: 0x30 }
  - { offsetInCU: 0x1C8E1, offset: 0x1C8E1, size: 0x8, addend: 0x0, symName: __ZNKSt3__116reverse_iteratorINS0_IP3NetEEE4baseB7v160006Ev, symObjAddr: 0xBFEC, symBinAddr: 0x10000FA98, symSize: 0x24 }
  - { offsetInCU: 0x1C90C, offset: 0x1C90C, size: 0x8, addend: 0x0, symName: __ZNSt3__119__to_address_helperINS_16reverse_iteratorINS1_IP3NetEEEEvE6__callB7v160006ERKS5_, symObjAddr: 0xC010, symBinAddr: 0x10000FABC, symSize: 0x38 }
  - { offsetInCU: 0x1C92F, offset: 0x1C92F, size: 0x8, addend: 0x0, symName: __ZNKSt3__116reverse_iteratorINS0_IP3NetEEEptB7v160006Ev, symObjAddr: 0xC048, symBinAddr: 0x10000FAF4, symSize: 0x24 }
  - { offsetInCU: 0x1C955, offset: 0x1C955, size: 0x8, addend: 0x0, symName: __ZNKSt3__116reverse_iteratorINS0_IP3NetEEEdeB7v160006Ev, symObjAddr: 0xC06C, symBinAddr: 0x10000FB18, symSize: 0x34 }
  - { offsetInCU: 0x1C989, offset: 0x1C989, size: 0x8, addend: 0x0, symName: __ZNSt3__116reverse_iteratorIP3NetEmmB7v160006Ev, symObjAddr: 0xC0A0, symBinAddr: 0x10000FB4C, symSize: 0x20 }
  - { offsetInCU: 0x1C9AF, offset: 0x1C9AF, size: 0x8, addend: 0x0, symName: __ZNSt3__116reverse_iteratorINS0_IP3NetEEEC2B7v160006ES3_, symObjAddr: 0xC0C0, symBinAddr: 0x10000FB6C, symSize: 0x2C }
  - { offsetInCU: 0x1C9E7, offset: 0x1C9E7, size: 0x8, addend: 0x0, symName: __ZNSt3__116reverse_iteratorIP3NetEC2B7v160006ES2_, symObjAddr: 0xC0EC, symBinAddr: 0x10000FB98, symSize: 0x28 }
  - { offsetInCU: 0x1CA1F, offset: 0x1CA1F, size: 0x8, addend: 0x0, symName: __ZNSt3__114__split_bufferI3NetRNS_9allocatorIS1_EEED2Ev, symObjAddr: 0xC114, symBinAddr: 0x10000FBC0, symSize: 0x8C }
  - { offsetInCU: 0x1CA4B, offset: 0x1CA4B, size: 0x8, addend: 0x0, symName: __ZNSt3__114__split_bufferI3NetRNS_9allocatorIS1_EEE5clearB7v160006Ev, symObjAddr: 0xC1A0, symBinAddr: 0x10000FC4C, symSize: 0x28 }
  - { offsetInCU: 0x1CA71, offset: 0x1CA71, size: 0x8, addend: 0x0, symName: __ZNKSt3__114__split_bufferI3NetRNS_9allocatorIS1_EEE8capacityB7v160006Ev, symObjAddr: 0xC1C8, symBinAddr: 0x10000FC74, symSize: 0x40 }
  - { offsetInCU: 0x1CA97, offset: 0x1CA97, size: 0x8, addend: 0x0, symName: __ZNSt3__114__split_bufferI3NetRNS_9allocatorIS1_EEE17__destruct_at_endB7v160006EPS1_, symObjAddr: 0xC208, symBinAddr: 0x10000FCB4, symSize: 0x2C }
  - { offsetInCU: 0x1CACB, offset: 0x1CACB, size: 0x8, addend: 0x0, symName: __ZNSt3__114__split_bufferI3NetRNS_9allocatorIS1_EEE17__destruct_at_endB7v160006EPS1_NS_17integral_constantIbLb0EEE, symObjAddr: 0xC234, symBinAddr: 0x10000FCE0, symSize: 0x80 }
  - { offsetInCU: 0x1CB0B, offset: 0x1CB0B, size: 0x8, addend: 0x0, symName: __ZNKSt3__114__split_bufferI3NetRNS_9allocatorIS1_EEE9__end_capB7v160006Ev, symObjAddr: 0xC2B4, symBinAddr: 0x10000FD60, symSize: 0x28 }
  - { offsetInCU: 0x1CB31, offset: 0x1CB31, size: 0x8, addend: 0x0, symName: __ZNKSt3__117__compressed_pairIP3NetRNS_9allocatorIS1_EEE5firstB7v160006Ev, symObjAddr: 0xC2DC, symBinAddr: 0x10000FD88, symSize: 0x24 }
  - { offsetInCU: 0x1CB57, offset: 0x1CB57, size: 0x8, addend: 0x0, symName: __ZNSt3__16vectorI3NetNS_9allocatorIS1_EEE19__copy_assign_allocB7v160006ERKS4_, symObjAddr: 0xC300, symBinAddr: 0x10000FDAC, symSize: 0x2C }
  - { offsetInCU: 0x1CB8C, offset: 0x1CB8C, size: 0x8, addend: 0x0, symName: __ZNSt3__16vectorI3NetNS_9allocatorIS1_EEE6assignIPS1_Li0EEEvT_S7_, symObjAddr: 0xC32C, symBinAddr: 0x10000FDD8, symSize: 0x17C }
  - { offsetInCU: 0x1CC2B, offset: 0x1CC2B, size: 0x8, addend: 0x0, symName: __ZNSt3__16vectorI3NetNS_9allocatorIS1_EEE19__copy_assign_allocB7v160006ERKS4_NS_17integral_constantIbLb0EEE, symObjAddr: 0xC4A8, symBinAddr: 0x10000FF54, symSize: 0x14 }
  - { offsetInCU: 0x1CC67, offset: 0x1CC67, size: 0x8, addend: 0x0, symName: __ZNSt3__16vectorI3NetNS_9allocatorIS1_EEE18__construct_at_endIPS1_Li0EEEvT_S7_m, symObjAddr: 0xC578, symBinAddr: 0x100010024, symSize: 0x8C }
  - { offsetInCU: 0x1CCDA, offset: 0x1CCDA, size: 0x8, addend: 0x0, symName: __ZNSt3__16vectorI3NetNS_9allocatorIS1_EEE17__destruct_at_endB7v160006EPS1_, symObjAddr: 0xC604, symBinAddr: 0x1000100B0, symSize: 0x60 }
  - { offsetInCU: 0x1CD1E, offset: 0x1CD1E, size: 0x8, addend: 0x0, symName: __ZNSt3__16vectorI3NetNS_9allocatorIS1_EEE13__vdeallocateEv, symObjAddr: 0xC664, symBinAddr: 0x100010110, symSize: 0x8C }
  - { offsetInCU: 0x1CD46, offset: 0x1CD46, size: 0x8, addend: 0x0, symName: __ZNSt3__16vectorI3NetNS_9allocatorIS1_EEE11__vallocateB7v160006Em, symObjAddr: 0xC6F0, symBinAddr: 0x10001019C, symSize: 0xB4 }
  - { offsetInCU: 0x1CDAD, offset: 0x1CDAD, size: 0x8, addend: 0x0, symName: __ZNKSt3__111__copy_loopINS_17_ClassicAlgPolicyEEclB7v160006IP3NetS5_S5_EENS_4pairIT_T1_EES7_T0_S8_, symObjAddr: 0xC998, symBinAddr: 0x100010444, symSize: 0x88 }
  - { offsetInCU: 0x1CE18, offset: 0x1CE18, size: 0x8, addend: 0x0, symName: __ZN3NetaSERKS_, symObjAddr: 0xCAE4, symBinAddr: 0x100010590, symSize: 0x5C }
  - { offsetInCU: 0x1CE49, offset: 0x1CE49, size: 0x8, addend: 0x0, symName: __ZNSt3__118__unwrap_iter_implIP3NetLb1EE8__unwrapB7v160006ES2_, symObjAddr: 0xCB40, symBinAddr: 0x1000105EC, symSize: 0x24 }
  - { offsetInCU: 0x1CE71, offset: 0x1CE71, size: 0x8, addend: 0x0, symName: __ZNSt3__14pairIP3NetS2_EC1B7v160006IS2_S2_LPv0EEEOT_OT0_, symObjAddr: 0xCB64, symBinAddr: 0x100010610, symSize: 0x3C }
  - { offsetInCU: 0x1CECF, offset: 0x1CECF, size: 0x8, addend: 0x0, symName: __ZNSt3__14pairIP3NetS2_EC2B7v160006IS2_S2_LPv0EEEOT_OT0_, symObjAddr: 0xCBA0, symBinAddr: 0x10001064C, symSize: 0x34 }
  - { offsetInCU: 0x1CF2D, offset: 0x1CF2D, size: 0x8, addend: 0x0, symName: __ZNSt3__118__unwrap_iter_implIP3NetLb1EE8__rewrapB7v160006ES2_S2_, symObjAddr: 0xCBD4, symBinAddr: 0x100010680, symSize: 0x58 }
  - { offsetInCU: 0x1CF5E, offset: 0x1CF5E, size: 0x8, addend: 0x0, symName: __ZNSt3__129_AllocatorDestroyRangeReverseINS_9allocatorI3NetEEPS2_EC1B7v160006ERS3_RS4_S7_, symObjAddr: 0xCD6C, symBinAddr: 0x100010818, symSize: 0x44 }
  - { offsetInCU: 0x1CFB5, offset: 0x1CFB5, size: 0x8, addend: 0x0, symName: __ZNSt3__128__exception_guard_exceptionsINS_29_AllocatorDestroyRangeReverseINS_9allocatorI3NetEEPS3_EEE10__completeB7v160006Ev, symObjAddr: 0xCDB0, symBinAddr: 0x10001085C, symSize: 0x1C }
  - { offsetInCU: 0x1CFDB, offset: 0x1CFDB, size: 0x8, addend: 0x0, symName: __ZNSt3__128__exception_guard_exceptionsINS_29_AllocatorDestroyRangeReverseINS_9allocatorI3NetEEPS3_EEED1B7v160006Ev, symObjAddr: 0xCDCC, symBinAddr: 0x100010878, symSize: 0x2C }
  - { offsetInCU: 0x1D005, offset: 0x1D005, size: 0x8, addend: 0x0, symName: __ZNSt3__128__exception_guard_exceptionsINS_29_AllocatorDestroyRangeReverseINS_9allocatorI3NetEEPS3_EEEC1B7v160006ES6_, symObjAddr: 0xCDF8, symBinAddr: 0x1000108A4, symSize: 0x34 }
  - { offsetInCU: 0x1D03E, offset: 0x1D03E, size: 0x8, addend: 0x0, symName: __ZNSt3__128__exception_guard_exceptionsINS_29_AllocatorDestroyRangeReverseINS_9allocatorI3NetEEPS3_EEEC2B7v160006ES6_, symObjAddr: 0xCE2C, symBinAddr: 0x1000108D8, symSize: 0x30 }
  - { offsetInCU: 0x1D077, offset: 0x1D077, size: 0x8, addend: 0x0, symName: __ZNSt3__129_AllocatorDestroyRangeReverseINS_9allocatorI3NetEEPS2_EC2B7v160006ERS3_RS4_S7_, symObjAddr: 0xCE5C, symBinAddr: 0x100010908, symSize: 0x38 }
  - { offsetInCU: 0x1D0CE, offset: 0x1D0CE, size: 0x8, addend: 0x0, symName: __ZNSt3__128__exception_guard_exceptionsINS_29_AllocatorDestroyRangeReverseINS_9allocatorI3NetEEPS3_EEED2B7v160006Ev, symObjAddr: 0xCE94, symBinAddr: 0x100010940, symSize: 0x50 }
  - { offsetInCU: 0x1D0F8, offset: 0x1D0F8, size: 0x8, addend: 0x0, symName: __ZNKSt3__129_AllocatorDestroyRangeReverseINS_9allocatorI3NetEEPS2_EclB7v160006Ev, symObjAddr: 0xCEE4, symBinAddr: 0x100010990, symSize: 0x68 }
  - { offsetInCU: 0x1D11E, offset: 0x1D11E, size: 0x8, addend: 0x0, symName: __ZNSt3__16vectorI3NetNS_9allocatorIS1_EEE27__invalidate_iterators_pastB7v160006EPS1_, symObjAddr: 0xCFBC, symBinAddr: 0x100010A68, symSize: 0x14 }
  - { offsetInCU: 0x1D155, offset: 0x1D155, size: 0x8, addend: 0x0, symName: __ZNKSt3__16vectorI3NetNS_9allocatorIS1_EEE17__annotate_shrinkB7v160006Em, symObjAddr: 0xCFD0, symBinAddr: 0x100010A7C, symSize: 0xD0 }
  - { offsetInCU: 0x1D18A, offset: 0x1D18A, size: 0x8, addend: 0x0, symName: __ZNSt3__16vectorI3NetNS_9allocatorIS1_EEE5clearB7v160006Ev, symObjAddr: 0xD0A0, symBinAddr: 0x100010B4C, symSize: 0x4C }
  - { offsetInCU: 0x1D1BF, offset: 0x1D1BF, size: 0x8, addend: 0x0, symName: __ZNSt3__16vectorI3PinNS_9allocatorIS1_EEE19__copy_assign_allocB7v160006ERKS4_, symObjAddr: 0xD0EC, symBinAddr: 0x100010B98, symSize: 0x2C }
  - { offsetInCU: 0x1D1F4, offset: 0x1D1F4, size: 0x8, addend: 0x0, symName: __ZNSt3__16vectorI3PinNS_9allocatorIS1_EEE6assignIPS1_Li0EEEvT_S7_, symObjAddr: 0xD118, symBinAddr: 0x100010BC4, symSize: 0x17C }
  - { offsetInCU: 0x1D293, offset: 0x1D293, size: 0x8, addend: 0x0, symName: __ZNSt3__16vectorI3PinNS_9allocatorIS1_EEE19__copy_assign_allocB7v160006ERKS4_NS_17integral_constantIbLb0EEE, symObjAddr: 0xD294, symBinAddr: 0x100010D40, symSize: 0x14 }
  - { offsetInCU: 0x1D2CF, offset: 0x1D2CF, size: 0x8, addend: 0x0, symName: __ZNSt3__16vectorI3PinNS_9allocatorIS1_EEE18__construct_at_endIPS1_Li0EEEvT_S7_m, symObjAddr: 0xD364, symBinAddr: 0x100010E10, symSize: 0x8C }
  - { offsetInCU: 0x1D342, offset: 0x1D342, size: 0x8, addend: 0x0, symName: __ZNSt3__16vectorI3PinNS_9allocatorIS1_EEE17__destruct_at_endB7v160006EPS1_, symObjAddr: 0xD3F0, symBinAddr: 0x100010E9C, symSize: 0x60 }
  - { offsetInCU: 0x1D386, offset: 0x1D386, size: 0x8, addend: 0x0, symName: __ZNSt3__16vectorI3PinNS_9allocatorIS1_EEE13__vdeallocateEv, symObjAddr: 0xD450, symBinAddr: 0x100010EFC, symSize: 0x8C }
  - { offsetInCU: 0x1D3AE, offset: 0x1D3AE, size: 0x8, addend: 0x0, symName: __ZNSt3__16vectorI3PinNS_9allocatorIS1_EEE11__vallocateB7v160006Em, symObjAddr: 0xD4DC, symBinAddr: 0x100010F88, symSize: 0xAC }
  - { offsetInCU: 0x1D40B, offset: 0x1D40B, size: 0x8, addend: 0x0, symName: __ZNKSt3__111__copy_loopINS_17_ClassicAlgPolicyEEclB7v160006IP3PinS5_S5_EENS_4pairIT_T1_EES7_T0_S8_, symObjAddr: 0xD774, symBinAddr: 0x100011220, symSize: 0x88 }
  - { offsetInCU: 0x1D476, offset: 0x1D476, size: 0x8, addend: 0x0, symName: __ZN3PinaSERKS_, symObjAddr: 0xD8C0, symBinAddr: 0x10001136C, symSize: 0x48 }
  - { offsetInCU: 0x1D4A7, offset: 0x1D4A7, size: 0x8, addend: 0x0, symName: __ZNSt3__118__unwrap_iter_implIP3PinLb1EE8__unwrapB7v160006ES2_, symObjAddr: 0xD908, symBinAddr: 0x1000113B4, symSize: 0x24 }
  - { offsetInCU: 0x1D4CF, offset: 0x1D4CF, size: 0x8, addend: 0x0, symName: __ZNSt3__14pairIP3PinS2_EC1B7v160006IS2_S2_LPv0EEEOT_OT0_, symObjAddr: 0xD92C, symBinAddr: 0x1000113D8, symSize: 0x3C }
  - { offsetInCU: 0x1D52D, offset: 0x1D52D, size: 0x8, addend: 0x0, symName: __ZNSt3__14pairIP3PinS2_EC2B7v160006IS2_S2_LPv0EEEOT_OT0_, symObjAddr: 0xD968, symBinAddr: 0x100011414, symSize: 0x34 }
  - { offsetInCU: 0x1D58B, offset: 0x1D58B, size: 0x8, addend: 0x0, symName: __ZNSt3__118__unwrap_iter_implIP3PinLb1EE8__rewrapB7v160006ES2_S2_, symObjAddr: 0xD99C, symBinAddr: 0x100011448, symSize: 0x50 }
  - { offsetInCU: 0x1D5BC, offset: 0x1D5BC, size: 0x8, addend: 0x0, symName: __ZNSt3__129_AllocatorDestroyRangeReverseINS_9allocatorI3PinEEPS2_EC1B7v160006ERS3_RS4_S7_, symObjAddr: 0xDB2C, symBinAddr: 0x1000115D8, symSize: 0x44 }
  - { offsetInCU: 0x1D613, offset: 0x1D613, size: 0x8, addend: 0x0, symName: __ZNSt3__128__exception_guard_exceptionsINS_29_AllocatorDestroyRangeReverseINS_9allocatorI3PinEEPS3_EEE10__completeB7v160006Ev, symObjAddr: 0xDB70, symBinAddr: 0x10001161C, symSize: 0x1C }
  - { offsetInCU: 0x1D639, offset: 0x1D639, size: 0x8, addend: 0x0, symName: __ZNSt3__128__exception_guard_exceptionsINS_29_AllocatorDestroyRangeReverseINS_9allocatorI3PinEEPS3_EEED1B7v160006Ev, symObjAddr: 0xDB8C, symBinAddr: 0x100011638, symSize: 0x2C }
  - { offsetInCU: 0x1D663, offset: 0x1D663, size: 0x8, addend: 0x0, symName: __ZNSt3__128__exception_guard_exceptionsINS_29_AllocatorDestroyRangeReverseINS_9allocatorI3PinEEPS3_EEEC1B7v160006ES6_, symObjAddr: 0xDBB8, symBinAddr: 0x100011664, symSize: 0x34 }
  - { offsetInCU: 0x1D69C, offset: 0x1D69C, size: 0x8, addend: 0x0, symName: __ZNSt3__128__exception_guard_exceptionsINS_29_AllocatorDestroyRangeReverseINS_9allocatorI3PinEEPS3_EEEC2B7v160006ES6_, symObjAddr: 0xDBEC, symBinAddr: 0x100011698, symSize: 0x30 }
  - { offsetInCU: 0x1D6D5, offset: 0x1D6D5, size: 0x8, addend: 0x0, symName: __ZNSt3__129_AllocatorDestroyRangeReverseINS_9allocatorI3PinEEPS2_EC2B7v160006ERS3_RS4_S7_, symObjAddr: 0xDC1C, symBinAddr: 0x1000116C8, symSize: 0x38 }
  - { offsetInCU: 0x1D72C, offset: 0x1D72C, size: 0x8, addend: 0x0, symName: __ZNSt3__128__exception_guard_exceptionsINS_29_AllocatorDestroyRangeReverseINS_9allocatorI3PinEEPS3_EEED2B7v160006Ev, symObjAddr: 0xDC54, symBinAddr: 0x100011700, symSize: 0x50 }
  - { offsetInCU: 0x1D756, offset: 0x1D756, size: 0x8, addend: 0x0, symName: __ZNKSt3__129_AllocatorDestroyRangeReverseINS_9allocatorI3PinEEPS2_EclB7v160006Ev, symObjAddr: 0xDCA4, symBinAddr: 0x100011750, symSize: 0x68 }
  - { offsetInCU: 0x1D77C, offset: 0x1D77C, size: 0x8, addend: 0x0, symName: __ZNSt3__16vectorI3PinNS_9allocatorIS1_EEE27__invalidate_iterators_pastB7v160006EPS1_, symObjAddr: 0xDD7C, symBinAddr: 0x100011828, symSize: 0x14 }
  - { offsetInCU: 0x1D7B3, offset: 0x1D7B3, size: 0x8, addend: 0x0, symName: __ZNKSt3__16vectorI3PinNS_9allocatorIS1_EEE17__annotate_shrinkB7v160006Em, symObjAddr: 0xDD90, symBinAddr: 0x10001183C, symSize: 0xB4 }
  - { offsetInCU: 0x1D7E8, offset: 0x1D7E8, size: 0x8, addend: 0x0, symName: __ZNSt3__16vectorI3PinNS_9allocatorIS1_EEE5clearB7v160006Ev, symObjAddr: 0xDE44, symBinAddr: 0x1000118F0, symSize: 0x4C }
  - { offsetInCU: 0x1D81D, offset: 0x1D81D, size: 0x8, addend: 0x0, symName: __ZNSt3__16vectorI5PointNS_9allocatorIS1_EEE19__copy_assign_allocB7v160006ERKS4_, symObjAddr: 0xDE90, symBinAddr: 0x10001193C, symSize: 0x2C }
  - { offsetInCU: 0x1D852, offset: 0x1D852, size: 0x8, addend: 0x0, symName: __ZNSt3__16vectorI5PointNS_9allocatorIS1_EEE6assignIPS1_Li0EEEvT_S7_, symObjAddr: 0xDEBC, symBinAddr: 0x100011968, symSize: 0x17C }
  - { offsetInCU: 0x1D8F1, offset: 0x1D8F1, size: 0x8, addend: 0x0, symName: __ZNSt3__16vectorI5PointNS_9allocatorIS1_EEE19__copy_assign_allocB7v160006ERKS4_NS_17integral_constantIbLb0EEE, symObjAddr: 0xE038, symBinAddr: 0x100011AE4, symSize: 0x14 }
  - { offsetInCU: 0x1D92D, offset: 0x1D92D, size: 0x8, addend: 0x0, symName: __ZNSt3__16vectorI5PointNS_9allocatorIS1_EEE18__construct_at_endIPS1_Li0EEEvT_S7_m, symObjAddr: 0xE108, symBinAddr: 0x100011BB4, symSize: 0x8C }
  - { offsetInCU: 0x1D9A0, offset: 0x1D9A0, size: 0x8, addend: 0x0, symName: __ZNSt3__16vectorI5PointNS_9allocatorIS1_EEE17__destruct_at_endB7v160006EPS1_, symObjAddr: 0xE194, symBinAddr: 0x100011C40, symSize: 0x60 }
  - { offsetInCU: 0x1D9E4, offset: 0x1D9E4, size: 0x8, addend: 0x0, symName: __ZNSt3__16vectorI5PointNS_9allocatorIS1_EEE13__vdeallocateEv, symObjAddr: 0xE1F4, symBinAddr: 0x100011CA0, symSize: 0x8C }
  - { offsetInCU: 0x1DA0C, offset: 0x1DA0C, size: 0x8, addend: 0x0, symName: __ZNSt3__16vectorI5PointNS_9allocatorIS1_EEE11__vallocateB7v160006Em, symObjAddr: 0xE280, symBinAddr: 0x100011D2C, symSize: 0xB4 }
  - { offsetInCU: 0x1DA69, offset: 0x1DA69, size: 0x8, addend: 0x0, symName: __ZNKSt3__114__copy_trivialclB7v160006I5PointS2_Li0EEENS_4pairIPT_PT0_EES5_S5_S7_, symObjAddr: 0xE528, symBinAddr: 0x100011FD4, symSize: 0x48 }
  - { offsetInCU: 0x1DAD6, offset: 0x1DAD6, size: 0x8, addend: 0x0, symName: __ZNSt3__14pairIP5PointS2_EC1B7v160006IRS2_S2_LPv0EEEOT_OT0_, symObjAddr: 0xE6F8, symBinAddr: 0x1000121A4, symSize: 0x3C }
  - { offsetInCU: 0x1DB34, offset: 0x1DB34, size: 0x8, addend: 0x0, symName: __ZNSt3__14pairIP5PointS2_EC2B7v160006IRS2_S2_LPv0EEEOT_OT0_, symObjAddr: 0xE734, symBinAddr: 0x1000121E0, symSize: 0x34 }
  - { offsetInCU: 0x1DB92, offset: 0x1DB92, size: 0x8, addend: 0x0, symName: __ZNSt3__118__unwrap_iter_implIP5PointLb1EE8__unwrapB7v160006ES2_, symObjAddr: 0xE768, symBinAddr: 0x100012214, symSize: 0x24 }
  - { offsetInCU: 0x1DBB5, offset: 0x1DBB5, size: 0x8, addend: 0x0, symName: __ZNSt3__14pairIP5PointS2_EC1B7v160006IS2_S2_LPv0EEEOT_OT0_, symObjAddr: 0xE78C, symBinAddr: 0x100012238, symSize: 0x3C }
  - { offsetInCU: 0x1DC13, offset: 0x1DC13, size: 0x8, addend: 0x0, symName: __ZNSt3__14pairIP5PointS2_EC2B7v160006IS2_S2_LPv0EEEOT_OT0_, symObjAddr: 0xE7C8, symBinAddr: 0x100012274, symSize: 0x34 }
  - { offsetInCU: 0x1DC71, offset: 0x1DC71, size: 0x8, addend: 0x0, symName: __ZNSt3__118__unwrap_iter_implIP5PointLb1EE8__rewrapB7v160006ES2_S2_, symObjAddr: 0xE7FC, symBinAddr: 0x1000122A8, symSize: 0x58 }
  - { offsetInCU: 0x1DCA2, offset: 0x1DCA2, size: 0x8, addend: 0x0, symName: __ZNSt3__129_AllocatorDestroyRangeReverseINS_9allocatorI5PointEEPS2_EC1B7v160006ERS3_RS4_S7_, symObjAddr: 0xE994, symBinAddr: 0x100012440, symSize: 0x44 }
  - { offsetInCU: 0x1DCF9, offset: 0x1DCF9, size: 0x8, addend: 0x0, symName: __ZNSt3__128__exception_guard_exceptionsINS_29_AllocatorDestroyRangeReverseINS_9allocatorI5PointEEPS3_EEE10__completeB7v160006Ev, symObjAddr: 0xE9D8, symBinAddr: 0x100012484, symSize: 0x1C }
  - { offsetInCU: 0x1DD1F, offset: 0x1DD1F, size: 0x8, addend: 0x0, symName: __ZNSt3__128__exception_guard_exceptionsINS_29_AllocatorDestroyRangeReverseINS_9allocatorI5PointEEPS3_EEED1B7v160006Ev, symObjAddr: 0xE9F4, symBinAddr: 0x1000124A0, symSize: 0x2C }
  - { offsetInCU: 0x1DD49, offset: 0x1DD49, size: 0x8, addend: 0x0, symName: __ZNSt3__128__exception_guard_exceptionsINS_29_AllocatorDestroyRangeReverseINS_9allocatorI5PointEEPS3_EEEC1B7v160006ES6_, symObjAddr: 0xEA20, symBinAddr: 0x1000124CC, symSize: 0x34 }
  - { offsetInCU: 0x1DD82, offset: 0x1DD82, size: 0x8, addend: 0x0, symName: __ZNSt3__128__exception_guard_exceptionsINS_29_AllocatorDestroyRangeReverseINS_9allocatorI5PointEEPS3_EEEC2B7v160006ES6_, symObjAddr: 0xEA54, symBinAddr: 0x100012500, symSize: 0x30 }
  - { offsetInCU: 0x1DDBB, offset: 0x1DDBB, size: 0x8, addend: 0x0, symName: __ZNSt3__129_AllocatorDestroyRangeReverseINS_9allocatorI5PointEEPS2_EC2B7v160006ERS3_RS4_S7_, symObjAddr: 0xEA84, symBinAddr: 0x100012530, symSize: 0x38 }
  - { offsetInCU: 0x1DE12, offset: 0x1DE12, size: 0x8, addend: 0x0, symName: __ZNSt3__128__exception_guard_exceptionsINS_29_AllocatorDestroyRangeReverseINS_9allocatorI5PointEEPS3_EEED2B7v160006Ev, symObjAddr: 0xEABC, symBinAddr: 0x100012568, symSize: 0x50 }
  - { offsetInCU: 0x1DE3C, offset: 0x1DE3C, size: 0x8, addend: 0x0, symName: __ZNKSt3__129_AllocatorDestroyRangeReverseINS_9allocatorI5PointEEPS2_EclB7v160006Ev, symObjAddr: 0xEB0C, symBinAddr: 0x1000125B8, symSize: 0x68 }
  - { offsetInCU: 0x1DE67, offset: 0x1DE67, size: 0x8, addend: 0x0, symName: __ZNSt3__119__to_address_helperINS_16reverse_iteratorIP5PointEEvE6__callB7v160006ERKS4_, symObjAddr: 0xEC08, symBinAddr: 0x1000126B4, symSize: 0x38 }
  - { offsetInCU: 0x1DE8A, offset: 0x1DE8A, size: 0x8, addend: 0x0, symName: __ZNKSt3__116reverse_iteratorIP5PointEptB7v160006Ev, symObjAddr: 0xEC40, symBinAddr: 0x1000126EC, symSize: 0x24 }
  - { offsetInCU: 0x1DEB0, offset: 0x1DEB0, size: 0x8, addend: 0x0, symName: __ZNSt3__16vectorI5PointNS_9allocatorIS1_EEE27__invalidate_iterators_pastB7v160006EPS1_, symObjAddr: 0xEC64, symBinAddr: 0x100012710, symSize: 0x14 }
  - { offsetInCU: 0x1DEE7, offset: 0x1DEE7, size: 0x8, addend: 0x0, symName: __ZNKSt3__16vectorI5PointNS_9allocatorIS1_EEE17__annotate_shrinkB7v160006Em, symObjAddr: 0xEC78, symBinAddr: 0x100012724, symSize: 0xD0 }
  - { offsetInCU: 0x1DF1C, offset: 0x1DF1C, size: 0x8, addend: 0x0, symName: __ZNSt3__16vectorI5PointNS_9allocatorIS1_EEE5clearB7v160006Ev, symObjAddr: 0xED48, symBinAddr: 0x1000127F4, symSize: 0x4C }
  - { offsetInCU: 0x1DF51, offset: 0x1DF51, size: 0x8, addend: 0x0, symName: __ZNSt3__112basic_stringIcNS_11char_traitsIcEENS_9allocatorIcEEEC2B7v160006IDnEEPKc, symObjAddr: 0xED94, symBinAddr: 0x100012840, symSize: 0x60 }
...
